(dp0
S'OneBTags'
p1
(dp2
S'zMass'
p3
(dp4
S'MM'
p5
L115L
sS'EE'
p6
L81L
sS'cut'
p7
S'weight*(((nJets >= 2 && met > 150) || (nJets >= 3 && met > 100)) && abs(eta1) < 1.4 && abs(eta2) < 1.4 && ( chargeProduct < 0 && pt1 > 20 && pt2 > 20 && abs(eta1)<2.4  && abs(eta2) < 2.4 && ((abs(eta1) < 1.4 || abs(eta1) > 1.6) && (abs(eta2) < 1.4 || abs(eta2) > 1.6)) && p4.M() > 20 && deltaR > 0.3) && runNr < 99999999)*(nBJets == 1)*(p4.M()> 81 && p4.M() < 101)'
p8
sS'EM'
p9
L185L
ssS'edgeMass'
p10
(dp11
g5
L204L
sg6
L181L
sg7
S'weight*(((nJets >= 2 && met > 150) || (nJets >= 3 && met > 100)) && abs(eta1) < 1.4 && abs(eta2) < 1.4 && ( chargeProduct < 0 && pt1 > 20 && pt2 > 20 && abs(eta1)<2.4  && abs(eta2) < 2.4 && ((abs(eta1) < 1.4 || abs(eta1) > 1.6) && (abs(eta2) < 1.4 || abs(eta2) > 1.6)) && p4.M() > 20 && deltaR > 0.3) && runNr < 99999999)*(nBJets == 1)*(p4.M()> 20 && p4.M() < 70)'
p12
sg9
L320L
ssS'highMass'
p13
(dp14
g5
L200L
sg6
L193L
sg7
S'weight*(((nJets >= 2 && met > 150) || (nJets >= 3 && met > 100)) && abs(eta1) < 1.4 && abs(eta2) < 1.4 && ( chargeProduct < 0 && pt1 > 20 && pt2 > 20 && abs(eta1)<2.4  && abs(eta2) < 2.4 && ((abs(eta1) < 1.4 || abs(eta1) > 1.6) && (abs(eta2) < 1.4 || abs(eta2) > 1.6)) && p4.M() > 20 && deltaR > 0.3) && runNr < 99999999)*(nBJets == 1)*(p4.M() > 120)'
p15
sg9
L368L
ssS'fullMassRange'
p16
(dp17
g5
L648L
sg6
L585L
sg7
S'weight*(((nJets >= 2 && met > 150) || (nJets >= 3 && met > 100)) && abs(eta1) < 1.4 && abs(eta2) < 1.4 && ( chargeProduct < 0 && pt1 > 20 && pt2 > 20 && abs(eta1)<2.4  && abs(eta2) < 2.4 && ((abs(eta1) < 1.4 || abs(eta1) > 1.6) && (abs(eta2) < 1.4 || abs(eta2) > 1.6)) && p4.M() > 20 && deltaR > 0.3) && runNr < 99999999)*(nBJets == 1)*(p4.M() > 20)'
p18
sg9
L1103L
sssS'ht100to300'
p19
(dp20
g3
(dp21
g5
L121L
sg6
L103L
sg7
S'weight*(((nJets >= 2 && met > 150) || (nJets >= 3 && met > 100)) && abs(eta1) < 1.4 && abs(eta2) < 1.4 && ( chargeProduct < 0 && pt1 > 20 && pt2 > 20 && abs(eta1)<2.4  && abs(eta2) < 2.4 && ((abs(eta1) < 1.4 || abs(eta1) > 1.6) && (abs(eta2) < 1.4 || abs(eta2) > 1.6)) && p4.M() > 20 && deltaR > 0.3) && runNr < 99999999)*(ht > 100 && ht < 300)*(p4.M()> 81 && p4.M() < 101)'
p22
sg9
L202L
ssg10
(dp23
g5
L248L
sg6
L207L
sg7
S'weight*(((nJets >= 2 && met > 150) || (nJets >= 3 && met > 100)) && abs(eta1) < 1.4 && abs(eta2) < 1.4 && ( chargeProduct < 0 && pt1 > 20 && pt2 > 20 && abs(eta1)<2.4  && abs(eta2) < 2.4 && ((abs(eta1) < 1.4 || abs(eta1) > 1.6) && (abs(eta2) < 1.4 || abs(eta2) > 1.6)) && p4.M() > 20 && deltaR > 0.3) && runNr < 99999999)*(ht > 100 && ht < 300)*(p4.M()> 20 && p4.M() < 70)'
p24
sg9
L396L
ssg13
(dp25
g5
L211L
sg6
L197L
sg7
S'weight*(((nJets >= 2 && met > 150) || (nJets >= 3 && met > 100)) && abs(eta1) < 1.4 && abs(eta2) < 1.4 && ( chargeProduct < 0 && pt1 > 20 && pt2 > 20 && abs(eta1)<2.4  && abs(eta2) < 2.4 && ((abs(eta1) < 1.4 || abs(eta1) > 1.6) && (abs(eta2) < 1.4 || abs(eta2) > 1.6)) && p4.M() > 20 && deltaR > 0.3) && runNr < 99999999)*(ht > 100 && ht < 300)*(p4.M() > 120)'
p26
sg9
L389L
ssg16
(dp27
g5
L733L
sg6
L642L
sg7
S'weight*(((nJets >= 2 && met > 150) || (nJets >= 3 && met > 100)) && abs(eta1) < 1.4 && abs(eta2) < 1.4 && ( chargeProduct < 0 && pt1 > 20 && pt2 > 20 && abs(eta1)<2.4  && abs(eta2) < 2.4 && ((abs(eta1) < 1.4 || abs(eta1) > 1.6) && (abs(eta2) < 1.4 || abs(eta2) > 1.6)) && p4.M() > 20 && deltaR > 0.3) && runNr < 99999999)*(ht > 100 && ht < 300)*(p4.M() > 20)'
p28
sg9
L1222L
sssS'geOneBTags'
p29
(dp30
g3
(dp31
g5
L175L
sg6
L138L
sg7
S'weight*(((nJets >= 2 && met > 150) || (nJets >= 3 && met > 100)) && abs(eta1) < 1.4 && abs(eta2) < 1.4 && ( chargeProduct < 0 && pt1 > 20 && pt2 > 20 && abs(eta1)<2.4  && abs(eta2) < 2.4 && ((abs(eta1) < 1.4 || abs(eta1) > 1.6) && (abs(eta2) < 1.4 || abs(eta2) > 1.6)) && p4.M() > 20 && deltaR > 0.3) && runNr < 99999999)*(nBJets >= 1)*(p4.M()> 81 && p4.M() < 101)'
p32
sg9
L283L
ssg10
(dp33
g5
L368L
sg6
L295L
sg7
S'weight*(((nJets >= 2 && met > 150) || (nJets >= 3 && met > 100)) && abs(eta1) < 1.4 && abs(eta2) < 1.4 && ( chargeProduct < 0 && pt1 > 20 && pt2 > 20 && abs(eta1)<2.4  && abs(eta2) < 2.4 && ((abs(eta1) < 1.4 || abs(eta1) > 1.6) && (abs(eta2) < 1.4 || abs(eta2) > 1.6)) && p4.M() > 20 && deltaR > 0.3) && runNr < 99999999)*(nBJets >= 1)*(p4.M()> 20 && p4.M() < 70)'
p34
sg9
L551L
ssg13
(dp35
g5
L350L
sg6
L316L
sg7
S'weight*(((nJets >= 2 && met > 150) || (nJets >= 3 && met > 100)) && abs(eta1) < 1.4 && abs(eta2) < 1.4 && ( chargeProduct < 0 && pt1 > 20 && pt2 > 20 && abs(eta1)<2.4  && abs(eta2) < 2.4 && ((abs(eta1) < 1.4 || abs(eta1) > 1.6) && (abs(eta2) < 1.4 || abs(eta2) > 1.6)) && p4.M() > 20 && deltaR > 0.3) && runNr < 99999999)*(nBJets >= 1)*(p4.M() > 120)'
p36
sg9
L611L
ssg16
(dp37
g5
L1112L
sg6
L943L
sg7
S'weight*(((nJets >= 2 && met > 150) || (nJets >= 3 && met > 100)) && abs(eta1) < 1.4 && abs(eta2) < 1.4 && ( chargeProduct < 0 && pt1 > 20 && pt2 > 20 && abs(eta1)<2.4  && abs(eta2) < 2.4 && ((abs(eta1) < 1.4 || abs(eta1) > 1.6) && (abs(eta2) < 1.4 || abs(eta2) > 1.6)) && p4.M() > 20 && deltaR > 0.3) && runNr < 99999999)*(nBJets >= 1)*(p4.M() > 20)'
p38
sg9
L1829L
sssS'lowPU'
p39
(dp40
g3
(dp41
g5
L97L
sg6
L92L
sg7
S'weight*(((nJets >= 2 && met > 150) || (nJets >= 3 && met > 100)) && abs(eta1) < 1.4 && abs(eta2) < 1.4 && ( chargeProduct < 0 && pt1 > 20 && pt2 > 20 && abs(eta1)<2.4  && abs(eta2) < 2.4 && ((abs(eta1) < 1.4 || abs(eta1) > 1.6) && (abs(eta2) < 1.4 || abs(eta2) > 1.6)) && p4.M() > 20 && deltaR > 0.3) && runNr < 99999999)*(nVertices < 13)*(p4.M()> 81 && p4.M() < 101)'
p42
sg9
L141L
ssg10
(dp43
g5
L172L
sg6
L160L
sg7
S'weight*(((nJets >= 2 && met > 150) || (nJets >= 3 && met > 100)) && abs(eta1) < 1.4 && abs(eta2) < 1.4 && ( chargeProduct < 0 && pt1 > 20 && pt2 > 20 && abs(eta1)<2.4  && abs(eta2) < 2.4 && ((abs(eta1) < 1.4 || abs(eta1) > 1.6) && (abs(eta2) < 1.4 || abs(eta2) > 1.6)) && p4.M() > 20 && deltaR > 0.3) && runNr < 99999999)*(nVertices < 13)*(p4.M()> 20 && p4.M() < 70)'
p44
sg9
L286L
ssg13
(dp45
g5
L165L
sg6
L171L
sg7
S'weight*(((nJets >= 2 && met > 150) || (nJets >= 3 && met > 100)) && abs(eta1) < 1.4 && abs(eta2) < 1.4 && ( chargeProduct < 0 && pt1 > 20 && pt2 > 20 && abs(eta1)<2.4  && abs(eta2) < 2.4 && ((abs(eta1) < 1.4 || abs(eta1) > 1.6) && (abs(eta2) < 1.4 || abs(eta2) > 1.6)) && p4.M() > 20 && deltaR > 0.3) && runNr < 99999999)*(nVertices < 13)*(p4.M() > 120)'
p46
sg9
L279L
ssg16
(dp47
g5
L536L
sg6
L516L
sg7
S'weight*(((nJets >= 2 && met > 150) || (nJets >= 3 && met > 100)) && abs(eta1) < 1.4 && abs(eta2) < 1.4 && ( chargeProduct < 0 && pt1 > 20 && pt2 > 20 && abs(eta1)<2.4  && abs(eta2) < 2.4 && ((abs(eta1) < 1.4 || abs(eta1) > 1.6) && (abs(eta2) < 1.4 || abs(eta2) > 1.6)) && p4.M() > 20 && deltaR > 0.3) && runNr < 99999999)*(nVertices < 13)*(p4.M() > 20)'
p48
sg9
L868L
sssS'default'
p49
(dp50
g3
(dp51
g5
L262L
sg6
L232L
sg7
S'weight*(((nJets >= 2 && met > 150) || (nJets >= 3 && met > 100)) && abs(eta1) < 1.4 && abs(eta2) < 1.4 && ( chargeProduct < 0 && pt1 > 20 && pt2 > 20 && abs(eta1)<2.4  && abs(eta2) < 2.4 && ((abs(eta1) < 1.4 || abs(eta1) > 1.6) && (abs(eta2) < 1.4 || abs(eta2) > 1.6)) && p4.M() > 20 && deltaR > 0.3) && runNr < 99999999)*(p4.M()> 81 && p4.M() < 101)'
p52
sg9
L364L
ssg10
(dp53
g5
L476L
sg6
L389L
sg7
S'weight*(((nJets >= 2 && met > 150) || (nJets >= 3 && met > 100)) && abs(eta1) < 1.4 && abs(eta2) < 1.4 && ( chargeProduct < 0 && pt1 > 20 && pt2 > 20 && abs(eta1)<2.4  && abs(eta2) < 2.4 && ((abs(eta1) < 1.4 || abs(eta1) > 1.6) && (abs(eta2) < 1.4 || abs(eta2) > 1.6)) && p4.M() > 20 && deltaR > 0.3) && runNr < 99999999)*(p4.M()> 20 && p4.M() < 70)'
p54
sg9
L737L
ssg13
(dp55
g5
L448L
sg6
L401L
sg7
S'weight*(((nJets >= 2 && met > 150) || (nJets >= 3 && met > 100)) && abs(eta1) < 1.4 && abs(eta2) < 1.4 && ( chargeProduct < 0 && pt1 > 20 && pt2 > 20 && abs(eta1)<2.4  && abs(eta2) < 2.4 && ((abs(eta1) < 1.4 || abs(eta1) > 1.6) && (abs(eta2) < 1.4 || abs(eta2) > 1.6)) && p4.M() > 20 && deltaR > 0.3) && runNr < 99999999)*(p4.M() > 120)'
p56
sg9
L779L
ssg16
(dp57
g5
L1460L
sg6
L1271L
sg7
S'weight*(((nJets >= 2 && met > 150) || (nJets >= 3 && met > 100)) && abs(eta1) < 1.4 && abs(eta2) < 1.4 && ( chargeProduct < 0 && pt1 > 20 && pt2 > 20 && abs(eta1)<2.4  && abs(eta2) < 2.4 && ((abs(eta1) < 1.4 || abs(eta1) > 1.6) && (abs(eta2) < 1.4 || abs(eta2) > 1.6)) && p4.M() > 20 && deltaR > 0.3) && runNr < 99999999)*(p4.M() > 20)'
p58
sg9
L2345L
sssS'pt3020'
p59
(dp60
g3
(dp61
g5
L261L
sg6
L232L
sg7
S'weight*(((nJets >= 2 && met > 150) || (nJets >= 3 && met > 100)) && abs(eta1) < 1.4 && abs(eta2) < 1.4 && ( chargeProduct < 0 &&  abs(eta1)<2.4  && abs(eta2) < 2.4 && ((abs(eta1) < 1.4 || abs(eta1) > 1.6) && (abs(eta2) < 1.4 || abs(eta2) > 1.6)) && p4.M() > 20 && deltaR > 0.3) && runNr < 99999999)*(((pt1 > 30 && pt2 > 20)||(pt1 > 20 && pt2 > 30)))*(p4.M()> 81 && p4.M() < 101)'
p62
sg9
L363L
ssg10
(dp63
g5
L421L
sg6
L340L
sg7
S'weight*(((nJets >= 2 && met > 150) || (nJets >= 3 && met > 100)) && abs(eta1) < 1.4 && abs(eta2) < 1.4 && ( chargeProduct < 0 &&  abs(eta1)<2.4  && abs(eta2) < 2.4 && ((abs(eta1) < 1.4 || abs(eta1) > 1.6) && (abs(eta2) < 1.4 || abs(eta2) > 1.6)) && p4.M() > 20 && deltaR > 0.3) && runNr < 99999999)*(((pt1 > 30 && pt2 > 20)||(pt1 > 20 && pt2 > 30)))*(p4.M()> 20 && p4.M() < 70)'
p64
sg9
L665L
ssg13
(dp65
g5
L448L
sg6
L401L
sg7
S'weight*(((nJets >= 2 && met > 150) || (nJets >= 3 && met > 100)) && abs(eta1) < 1.4 && abs(eta2) < 1.4 && ( chargeProduct < 0 &&  abs(eta1)<2.4  && abs(eta2) < 2.4 && ((abs(eta1) < 1.4 || abs(eta1) > 1.6) && (abs(eta2) < 1.4 || abs(eta2) > 1.6)) && p4.M() > 20 && deltaR > 0.3) && runNr < 99999999)*(((pt1 > 30 && pt2 > 20)||(pt1 > 20 && pt2 > 30)))*(p4.M() > 120)'
p66
sg9
L779L
ssg16
(dp67
g5
L1402L
sg6
L1222L
sg7
S'weight*(((nJets >= 2 && met > 150) || (nJets >= 3 && met > 100)) && abs(eta1) < 1.4 && abs(eta2) < 1.4 && ( chargeProduct < 0 &&  abs(eta1)<2.4  && abs(eta2) < 2.4 && ((abs(eta1) < 1.4 || abs(eta1) > 1.6) && (abs(eta2) < 1.4 || abs(eta2) > 1.6)) && p4.M() > 20 && deltaR > 0.3) && runNr < 99999999)*(((pt1 > 30 && pt2 > 20)||(pt1 > 20 && pt2 > 30)))*(p4.M() > 20)'
p68
sg9
L2270L
sssS'ht300'
p69
(dp70
g3
(dp71
g5
L140L
sg6
L127L
sg7
S'weight*(((nJets >= 2 && met > 150) || (nJets >= 3 && met > 100)) && abs(eta1) < 1.4 && abs(eta2) < 1.4 && ( chargeProduct < 0 && pt1 > 20 && pt2 > 20 && abs(eta1)<2.4  && abs(eta2) < 2.4 && ((abs(eta1) < 1.4 || abs(eta1) > 1.6) && (abs(eta2) < 1.4 || abs(eta2) > 1.6)) && p4.M() > 20 && deltaR > 0.3) && runNr < 99999999)*(ht > 300)*(p4.M()> 81 && p4.M() < 101)'
p72
sg9
L161L
ssg10
(dp73
g5
L228L
sg6
L182L
sg7
S'weight*(((nJets >= 2 && met > 150) || (nJets >= 3 && met > 100)) && abs(eta1) < 1.4 && abs(eta2) < 1.4 && ( chargeProduct < 0 && pt1 > 20 && pt2 > 20 && abs(eta1)<2.4  && abs(eta2) < 2.4 && ((abs(eta1) < 1.4 || abs(eta1) > 1.6) && (abs(eta2) < 1.4 || abs(eta2) > 1.6)) && p4.M() > 20 && deltaR > 0.3) && runNr < 99999999)*(ht > 300)*(p4.M()> 20 && p4.M() < 70)'
p74
sg9
L340L
ssg13
(dp75
g5
L234L
sg6
L201L
sg7
S'weight*(((nJets >= 2 && met > 150) || (nJets >= 3 && met > 100)) && abs(eta1) < 1.4 && abs(eta2) < 1.4 && ( chargeProduct < 0 && pt1 > 20 && pt2 > 20 && abs(eta1)<2.4  && abs(eta2) < 2.4 && ((abs(eta1) < 1.4 || abs(eta1) > 1.6) && (abs(eta2) < 1.4 || abs(eta2) > 1.6)) && p4.M() > 20 && deltaR > 0.3) && runNr < 99999999)*(ht > 300)*(p4.M() > 120)'
p76
sg9
L386L
ssg16
(dp77
g5
L723L
sg6
L623L
sg7
S'weight*(((nJets >= 2 && met > 150) || (nJets >= 3 && met > 100)) && abs(eta1) < 1.4 && abs(eta2) < 1.4 && ( chargeProduct < 0 && pt1 > 20 && pt2 > 20 && abs(eta1)<2.4  && abs(eta2) < 2.4 && ((abs(eta1) < 1.4 || abs(eta1) > 1.6) && (abs(eta2) < 1.4 || abs(eta2) > 1.6)) && p4.M() > 20 && deltaR > 0.3) && runNr < 99999999)*(ht > 300)*(p4.M() > 20)'
p78
sg9
L1117L
sssS'highPU'
p79
(dp80
g3
(dp81
g5
L98L
sg6
L77L
sg7
S'weight*(((nJets >= 2 && met > 150) || (nJets >= 3 && met > 100)) && abs(eta1) < 1.4 && abs(eta2) < 1.4 && ( chargeProduct < 0 && pt1 > 20 && pt2 > 20 && abs(eta1)<2.4  && abs(eta2) < 2.4 && ((abs(eta1) < 1.4 || abs(eta1) > 1.6) && (abs(eta2) < 1.4 || abs(eta2) > 1.6)) && p4.M() > 20 && deltaR > 0.3) && runNr < 99999999)*(nVertices >= 17)*(p4.M()> 81 && p4.M() < 101)'
p82
sg9
L107L
ssg10
(dp83
g5
L163L
sg6
L128L
sg7
S'weight*(((nJets >= 2 && met > 150) || (nJets >= 3 && met > 100)) && abs(eta1) < 1.4 && abs(eta2) < 1.4 && ( chargeProduct < 0 && pt1 > 20 && pt2 > 20 && abs(eta1)<2.4  && abs(eta2) < 2.4 && ((abs(eta1) < 1.4 || abs(eta1) > 1.6) && (abs(eta2) < 1.4 || abs(eta2) > 1.6)) && p4.M() > 20 && deltaR > 0.3) && runNr < 99999999)*(nVertices >= 17)*(p4.M()> 20 && p4.M() < 70)'
p84
sg9
L241L
ssg13
(dp85
g5
L150L
sg6
L134L
sg7
S'weight*(((nJets >= 2 && met > 150) || (nJets >= 3 && met > 100)) && abs(eta1) < 1.4 && abs(eta2) < 1.4 && ( chargeProduct < 0 && pt1 > 20 && pt2 > 20 && abs(eta1)<2.4  && abs(eta2) < 2.4 && ((abs(eta1) < 1.4 || abs(eta1) > 1.6) && (abs(eta2) < 1.4 || abs(eta2) > 1.6)) && p4.M() > 20 && deltaR > 0.3) && runNr < 99999999)*(nVertices >= 17)*(p4.M() > 120)'
p86
sg9
L283L
ssg16
(dp87
g5
L506L
sg6
L435L
sg7
S'weight*(((nJets >= 2 && met > 150) || (nJets >= 3 && met > 100)) && abs(eta1) < 1.4 && abs(eta2) < 1.4 && ( chargeProduct < 0 && pt1 > 20 && pt2 > 20 && abs(eta1)<2.4  && abs(eta2) < 2.4 && ((abs(eta1) < 1.4 || abs(eta1) > 1.6) && (abs(eta2) < 1.4 || abs(eta2) > 1.6)) && p4.M() > 20 && deltaR > 0.3) && runNr < 99999999)*(nVertices >= 17)*(p4.M() > 20)'
p88
sg9
L782L
sssS'tcMet'
p89
(dp90
g3
(dp91
g5
L490L
sg6
L217L
sg7
S'weight*(((nJets >= 2 && tcMet > 150) || (nJets >= 3 && tcMet > 100)) && abs(eta1) < 1.4 && abs(eta2) < 1.4 && ( chargeProduct < 0 && pt1 > 20 && pt2 > 20 && abs(eta1)<2.4  && abs(eta2) < 2.4 && ((abs(eta1) < 1.4 || abs(eta1) > 1.6) && (abs(eta2) < 1.4 || abs(eta2) > 1.6)) && p4.M() > 20 && deltaR > 0.3) && runNr < 99999999)*(p4.M()> 81 && p4.M() < 101)'
p92
sg9
L338L
ssg10
(dp93
g5
L492L
sg6
L358L
sg7
S'weight*(((nJets >= 2 && tcMet > 150) || (nJets >= 3 && tcMet > 100)) && abs(eta1) < 1.4 && abs(eta2) < 1.4 && ( chargeProduct < 0 && pt1 > 20 && pt2 > 20 && abs(eta1)<2.4  && abs(eta2) < 2.4 && ((abs(eta1) < 1.4 || abs(eta1) > 1.6) && (abs(eta2) < 1.4 || abs(eta2) > 1.6)) && p4.M() > 20 && deltaR > 0.3) && runNr < 99999999)*(p4.M()> 20 && p4.M() < 70)'
p94
sg9
L693L
ssg13
(dp95
g5
L528L
sg6
L391L
sg7
S'weight*(((nJets >= 2 && tcMet > 150) || (nJets >= 3 && tcMet > 100)) && abs(eta1) < 1.4 && abs(eta2) < 1.4 && ( chargeProduct < 0 && pt1 > 20 && pt2 > 20 && abs(eta1)<2.4  && abs(eta2) < 2.4 && ((abs(eta1) < 1.4 || abs(eta1) > 1.6) && (abs(eta2) < 1.4 || abs(eta2) > 1.6)) && p4.M() > 20 && deltaR > 0.3) && runNr < 99999999)*(p4.M() > 120)'
p96
sg9
L800L
ssg16
(dp97
g5
L1838L
sg6
L1202L
sg7
S'weight*(((nJets >= 2 && tcMet > 150) || (nJets >= 3 && tcMet > 100)) && abs(eta1) < 1.4 && abs(eta2) < 1.4 && ( chargeProduct < 0 && pt1 > 20 && pt2 > 20 && abs(eta1)<2.4  && abs(eta2) < 2.4 && ((abs(eta1) < 1.4 || abs(eta1) > 1.6) && (abs(eta2) < 1.4 || abs(eta2) > 1.6)) && p4.M() > 20 && deltaR > 0.3) && runNr < 99999999)*(p4.M() > 20)'
p98
sg9
L2287L
sssS'geTwoBTags'
p99
(dp100
g3
(dp101
g5
L60L
sg6
L57L
sg7
S'weight*(((nJets >= 2 && met > 150) || (nJets >= 3 && met > 100)) && abs(eta1) < 1.4 && abs(eta2) < 1.4 && ( chargeProduct < 0 && pt1 > 20 && pt2 > 20 && abs(eta1)<2.4  && abs(eta2) < 2.4 && ((abs(eta1) < 1.4 || abs(eta1) > 1.6) && (abs(eta2) < 1.4 || abs(eta2) > 1.6)) && p4.M() > 20 && deltaR > 0.3) && runNr < 99999999)*(nBJets >= 2)*(p4.M()> 81 && p4.M() < 101)'
p102
sg9
L98L
ssg10
(dp103
g5
L164L
sg6
L114L
sg7
S'weight*(((nJets >= 2 && met > 150) || (nJets >= 3 && met > 100)) && abs(eta1) < 1.4 && abs(eta2) < 1.4 && ( chargeProduct < 0 && pt1 > 20 && pt2 > 20 && abs(eta1)<2.4  && abs(eta2) < 2.4 && ((abs(eta1) < 1.4 || abs(eta1) > 1.6) && (abs(eta2) < 1.4 || abs(eta2) > 1.6)) && p4.M() > 20 && deltaR > 0.3) && runNr < 99999999)*(nBJets >= 2)*(p4.M()> 20 && p4.M() < 70)'
p104
sg9
L231L
ssg13
(dp105
g5
L150L
sg6
L123L
sg7
S'weight*(((nJets >= 2 && met > 150) || (nJets >= 3 && met > 100)) && abs(eta1) < 1.4 && abs(eta2) < 1.4 && ( chargeProduct < 0 && pt1 > 20 && pt2 > 20 && abs(eta1)<2.4  && abs(eta2) < 2.4 && ((abs(eta1) < 1.4 || abs(eta1) > 1.6) && (abs(eta2) < 1.4 || abs(eta2) > 1.6)) && p4.M() > 20 && deltaR > 0.3) && runNr < 99999999)*(nBJets >= 2)*(p4.M() > 120)'
p106
sg9
L243L
ssg16
(dp107
g5
L464L
sg6
L358L
sg7
S'weight*(((nJets >= 2 && met > 150) || (nJets >= 3 && met > 100)) && abs(eta1) < 1.4 && abs(eta2) < 1.4 && ( chargeProduct < 0 && pt1 > 20 && pt2 > 20 && abs(eta1)<2.4  && abs(eta2) < 2.4 && ((abs(eta1) < 1.4 || abs(eta1) > 1.6) && (abs(eta2) < 1.4 || abs(eta2) > 1.6)) && p4.M() > 20 && deltaR > 0.3) && runNr < 99999999)*(nBJets >= 2)*(p4.M() > 20)'
p108
sg9
L726L
sssS'TwoBTags'
p109
(dp110
g3
(dp111
g5
L57L
sg6
L54L
sg7
S'weight*(((nJets >= 2 && met > 150) || (nJets >= 3 && met > 100)) && abs(eta1) < 1.4 && abs(eta2) < 1.4 && ( chargeProduct < 0 && pt1 > 20 && pt2 > 20 && abs(eta1)<2.4  && abs(eta2) < 2.4 && ((abs(eta1) < 1.4 || abs(eta1) > 1.6) && (abs(eta2) < 1.4 || abs(eta2) > 1.6)) && p4.M() > 20 && deltaR > 0.3) && runNr < 99999999)*(nBJets == 2)*(p4.M()> 81 && p4.M() < 101)'
p112
sg9
L93L
ssg10
(dp113
g5
L150L
sg6
L107L
sg7
S'weight*(((nJets >= 2 && met > 150) || (nJets >= 3 && met > 100)) && abs(eta1) < 1.4 && abs(eta2) < 1.4 && ( chargeProduct < 0 && pt1 > 20 && pt2 > 20 && abs(eta1)<2.4  && abs(eta2) < 2.4 && ((abs(eta1) < 1.4 || abs(eta1) > 1.6) && (abs(eta2) < 1.4 || abs(eta2) > 1.6)) && p4.M() > 20 && deltaR > 0.3) && runNr < 99999999)*(nBJets == 2)*(p4.M()> 20 && p4.M() < 70)'
p114
sg9
L217L
ssg13
(dp115
g5
L141L
sg6
L113L
sg7
S'weight*(((nJets >= 2 && met > 150) || (nJets >= 3 && met > 100)) && abs(eta1) < 1.4 && abs(eta2) < 1.4 && ( chargeProduct < 0 && pt1 > 20 && pt2 > 20 && abs(eta1)<2.4  && abs(eta2) < 2.4 && ((abs(eta1) < 1.4 || abs(eta1) > 1.6) && (abs(eta2) < 1.4 || abs(eta2) > 1.6)) && p4.M() > 20 && deltaR > 0.3) && runNr < 99999999)*(nBJets == 2)*(p4.M() > 120)'
p116
sg9
L231L
ssg16
(dp117
g5
L436L
sg6
L335L
sg7
S'weight*(((nJets >= 2 && met > 150) || (nJets >= 3 && met > 100)) && abs(eta1) < 1.4 && abs(eta2) < 1.4 && ( chargeProduct < 0 && pt1 > 20 && pt2 > 20 && abs(eta1)<2.4  && abs(eta2) < 2.4 && ((abs(eta1) < 1.4 || abs(eta1) > 1.6) && (abs(eta2) < 1.4 || abs(eta2) > 1.6)) && p4.M() > 20 && deltaR > 0.3) && runNr < 99999999)*(nBJets == 2)*(p4.M() > 20)'
p118
sg9
L685L
sssS'pt3010'
p119
(dp120
g3
(dp121
g5
L316L
sg6
L255L
sg7
S'weight*(((nJets >= 2 && met > 150) || (nJets >= 3 && met > 100)) && abs(eta1) < 1.4 && abs(eta2) < 1.4 && ( chargeProduct < 0 &&  abs(eta1)<2.4  && abs(eta2) < 2.4 && ((abs(eta1) < 1.4 || abs(eta1) > 1.6) && (abs(eta2) < 1.4 || abs(eta2) > 1.6)) && p4.M() > 20 && deltaR > 0.3) && runNr < 99999999)*(((pt1 > 30 && pt2 > 10)||(pt1 > 10 && pt2 > 30)))*(p4.M()> 81 && p4.M() < 101)'
p122
sg9
L409L
ssg10
(dp123
g5
L749L
sg6
L513L
sg7
S'weight*(((nJets >= 2 && met > 150) || (nJets >= 3 && met > 100)) && abs(eta1) < 1.4 && abs(eta2) < 1.4 && ( chargeProduct < 0 &&  abs(eta1)<2.4  && abs(eta2) < 2.4 && ((abs(eta1) < 1.4 || abs(eta1) > 1.6) && (abs(eta2) < 1.4 || abs(eta2) > 1.6)) && p4.M() > 20 && deltaR > 0.3) && runNr < 99999999)*(((pt1 > 30 && pt2 > 10)||(pt1 > 10 && pt2 > 30)))*(p4.M()> 20 && p4.M() < 70)'
p124
sg9
L1100L
ssg13
(dp125
g5
L458L
sg6
L408L
sg7
S'weight*(((nJets >= 2 && met > 150) || (nJets >= 3 && met > 100)) && abs(eta1) < 1.4 && abs(eta2) < 1.4 && ( chargeProduct < 0 &&  abs(eta1)<2.4  && abs(eta2) < 2.4 && ((abs(eta1) < 1.4 || abs(eta1) > 1.6) && (abs(eta2) < 1.4 || abs(eta2) > 1.6)) && p4.M() > 20 && deltaR > 0.3) && runNr < 99999999)*(((pt1 > 30 && pt2 > 10)||(pt1 > 10 && pt2 > 30)))*(p4.M() > 120)'
p126
sg9
L792L
ssg16
(dp127
g5
L1845L
sg6
L1457L
sg7
S'weight*(((nJets >= 2 && met > 150) || (nJets >= 3 && met > 100)) && abs(eta1) < 1.4 && abs(eta2) < 1.4 && ( chargeProduct < 0 &&  abs(eta1)<2.4  && abs(eta2) < 2.4 && ((abs(eta1) < 1.4 || abs(eta1) > 1.6) && (abs(eta2) < 1.4 || abs(eta2) > 1.6)) && p4.M() > 20 && deltaR > 0.3) && runNr < 99999999)*(((pt1 > 30 && pt2 > 10)||(pt1 > 10 && pt2 > 30)))*(p4.M() > 20)'
p128
sg9
L2843L
sssS'TightIso'
p129
(dp130
g3
(dp131
g5
L194L
sg6
L163L
sg7
S'weight*(((nJets >= 2 && met > 150) || (nJets >= 3 && met > 100)) && abs(eta1) < 1.4 && abs(eta2) < 1.4 && ( chargeProduct < 0 && pt1 > 20 && pt2 > 20 && abs(eta1)<2.4  && abs(eta2) < 2.4 && ((abs(eta1) < 1.4 || abs(eta1) > 1.6) && (abs(eta2) < 1.4 || abs(eta2) > 1.6)) && p4.M() > 20 && deltaR > 0.3) && runNr < 99999999)*(id1 < 0.05 && id2 < 0.05)*(p4.M()> 81 && p4.M() < 101)'
p132
sg9
L255L
ssg10
(dp133
g5
L302L
sg6
L270L
sg7
S'weight*(((nJets >= 2 && met > 150) || (nJets >= 3 && met > 100)) && abs(eta1) < 1.4 && abs(eta2) < 1.4 && ( chargeProduct < 0 && pt1 > 20 && pt2 > 20 && abs(eta1)<2.4  && abs(eta2) < 2.4 && ((abs(eta1) < 1.4 || abs(eta1) > 1.6) && (abs(eta2) < 1.4 || abs(eta2) > 1.6)) && p4.M() > 20 && deltaR > 0.3) && runNr < 99999999)*(id1 < 0.05 && id2 < 0.05)*(p4.M()> 20 && p4.M() < 70)'
p134
sg9
L485L
ssg13
(dp135
g5
L356L
sg6
L310L
sg7
S'weight*(((nJets >= 2 && met > 150) || (nJets >= 3 && met > 100)) && abs(eta1) < 1.4 && abs(eta2) < 1.4 && ( chargeProduct < 0 && pt1 > 20 && pt2 > 20 && abs(eta1)<2.4  && abs(eta2) < 2.4 && ((abs(eta1) < 1.4 || abs(eta1) > 1.6) && (abs(eta2) < 1.4 || abs(eta2) > 1.6)) && p4.M() > 20 && deltaR > 0.3) && runNr < 99999999)*(id1 < 0.05 && id2 < 0.05)*(p4.M() > 120)'
p136
sg9
L604L
ssg16
(dp137
g5
L1038L
sg6
L916L
sg7
S'weight*(((nJets >= 2 && met > 150) || (nJets >= 3 && met > 100)) && abs(eta1) < 1.4 && abs(eta2) < 1.4 && ( chargeProduct < 0 && pt1 > 20 && pt2 > 20 && abs(eta1)<2.4  && abs(eta2) < 2.4 && ((abs(eta1) < 1.4 || abs(eta1) > 1.6) && (abs(eta2) < 1.4 || abs(eta2) > 1.6)) && p4.M() > 20 && deltaR > 0.3) && runNr < 99999999)*(id1 < 0.05 && id2 < 0.05)*(p4.M() > 20)'
p138
sg9
L1660L
sssS'noBTags'
p139
(dp140
g3
(dp141
g5
L87L
sg6
L94L
sg7
S'weight*(((nJets >= 2 && met > 150) || (nJets >= 3 && met > 100)) && abs(eta1) < 1.4 && abs(eta2) < 1.4 && ( chargeProduct < 0 && pt1 > 20 && pt2 > 20 && abs(eta1)<2.4  && abs(eta2) < 2.4 && ((abs(eta1) < 1.4 || abs(eta1) > 1.6) && (abs(eta2) < 1.4 || abs(eta2) > 1.6)) && p4.M() > 20 && deltaR > 0.3) && runNr < 99999999)*(nBJets == 0)*(p4.M()> 81 && p4.M() < 101)'
p142
sg9
L81L
ssg10
(dp143
g5
L108L
sg6
L94L
sg7
S'weight*(((nJets >= 2 && met > 150) || (nJets >= 3 && met > 100)) && abs(eta1) < 1.4 && abs(eta2) < 1.4 && ( chargeProduct < 0 && pt1 > 20 && pt2 > 20 && abs(eta1)<2.4  && abs(eta2) < 2.4 && ((abs(eta1) < 1.4 || abs(eta1) > 1.6) && (abs(eta2) < 1.4 || abs(eta2) > 1.6)) && p4.M() > 20 && deltaR > 0.3) && runNr < 99999999)*(nBJets == 0)*(p4.M()> 20 && p4.M() < 70)'
p144
sg9
L186L
ssg13
(dp145
g5
L98L
sg6
L85L
sg7
S'weight*(((nJets >= 2 && met > 150) || (nJets >= 3 && met > 100)) && abs(eta1) < 1.4 && abs(eta2) < 1.4 && ( chargeProduct < 0 && pt1 > 20 && pt2 > 20 && abs(eta1)<2.4  && abs(eta2) < 2.4 && ((abs(eta1) < 1.4 || abs(eta1) > 1.6) && (abs(eta2) < 1.4 || abs(eta2) > 1.6)) && p4.M() > 20 && deltaR > 0.3) && runNr < 99999999)*(nBJets == 0)*(p4.M() > 120)'
p146
sg9
L168L
ssg16
(dp147
g5
L348L
sg6
L328L
sg7
S'weight*(((nJets >= 2 && met > 150) || (nJets >= 3 && met > 100)) && abs(eta1) < 1.4 && abs(eta2) < 1.4 && ( chargeProduct < 0 && pt1 > 20 && pt2 > 20 && abs(eta1)<2.4  && abs(eta2) < 2.4 && ((abs(eta1) < 1.4 || abs(eta1) > 1.6) && (abs(eta2) < 1.4 || abs(eta2) > 1.6)) && p4.M() > 20 && deltaR > 0.3) && runNr < 99999999)*(nBJets == 0)*(p4.M() > 20)'
p148
sg9
L516L
sssS'caloMet'
p149
(dp150
g3
(dp151
g5
L490L
sg6
L217L
sg7
S'weight*(((nJets >= 2 && caloMet > 150) || (nJets >= 3 && caloMet > 100)) && abs(eta1) < 1.4 && abs(eta2) < 1.4 && ( chargeProduct < 0 && pt1 > 20 && pt2 > 20 && abs(eta1)<2.4  && abs(eta2) < 2.4 && ((abs(eta1) < 1.4 || abs(eta1) > 1.6) && (abs(eta2) < 1.4 || abs(eta2) > 1.6)) && p4.M() > 20 && deltaR > 0.3) && runNr < 99999999)*(p4.M()> 81 && p4.M() < 101)'
p152
sg9
L338L
ssg10
(dp153
g5
L492L
sg6
L358L
sg7
S'weight*(((nJets >= 2 && caloMet > 150) || (nJets >= 3 && caloMet > 100)) && abs(eta1) < 1.4 && abs(eta2) < 1.4 && ( chargeProduct < 0 && pt1 > 20 && pt2 > 20 && abs(eta1)<2.4  && abs(eta2) < 2.4 && ((abs(eta1) < 1.4 || abs(eta1) > 1.6) && (abs(eta2) < 1.4 || abs(eta2) > 1.6)) && p4.M() > 20 && deltaR > 0.3) && runNr < 99999999)*(p4.M()> 20 && p4.M() < 70)'
p154
sg9
L693L
ssg13
(dp155
g5
L528L
sg6
L391L
sg7
S'weight*(((nJets >= 2 && caloMet > 150) || (nJets >= 3 && caloMet > 100)) && abs(eta1) < 1.4 && abs(eta2) < 1.4 && ( chargeProduct < 0 && pt1 > 20 && pt2 > 20 && abs(eta1)<2.4  && abs(eta2) < 2.4 && ((abs(eta1) < 1.4 || abs(eta1) > 1.6) && (abs(eta2) < 1.4 || abs(eta2) > 1.6)) && p4.M() > 20 && deltaR > 0.3) && runNr < 99999999)*(p4.M() > 120)'
p156
sg9
L800L
ssg16
(dp157
g5
L1838L
sg6
L1202L
sg7
S'weight*(((nJets >= 2 && caloMet > 150) || (nJets >= 3 && caloMet > 100)) && abs(eta1) < 1.4 && abs(eta2) < 1.4 && ( chargeProduct < 0 && pt1 > 20 && pt2 > 20 && abs(eta1)<2.4  && abs(eta2) < 2.4 && ((abs(eta1) < 1.4 || abs(eta1) > 1.6) && (abs(eta2) < 1.4 || abs(eta2) > 1.6)) && p4.M() > 20 && deltaR > 0.3) && runNr < 99999999)*(p4.M() > 20)'
p158
sg9
L2287L
sssS'type1Met'
p159
(dp160
g3
(dp161
g5
L305L
sg6
L262L
sg7
S'weight*(((nJets >= 2 && type1Met > 150) || (nJets >= 3 && type1Met > 100)) && abs(eta1) < 1.4 && abs(eta2) < 1.4 && ( chargeProduct < 0 && pt1 > 20 && pt2 > 20 && abs(eta1)<2.4  && abs(eta2) < 2.4 && ((abs(eta1) < 1.4 || abs(eta1) > 1.6) && (abs(eta2) < 1.4 || abs(eta2) > 1.6)) && p4.M() > 20 && deltaR > 0.3) && runNr < 99999999)*(p4.M()> 81 && p4.M() < 101)'
p162
sg9
L431L
ssg10
(dp163
g5
L573L
sg6
L461L
sg7
S'weight*(((nJets >= 2 && type1Met > 150) || (nJets >= 3 && type1Met > 100)) && abs(eta1) < 1.4 && abs(eta2) < 1.4 && ( chargeProduct < 0 && pt1 > 20 && pt2 > 20 && abs(eta1)<2.4  && abs(eta2) < 2.4 && ((abs(eta1) < 1.4 || abs(eta1) > 1.6) && (abs(eta2) < 1.4 || abs(eta2) > 1.6)) && p4.M() > 20 && deltaR > 0.3) && runNr < 99999999)*(p4.M()> 20 && p4.M() < 70)'
p164
sg9
L911L
ssg13
(dp165
g5
L514L
sg6
L471L
sg7
S'weight*(((nJets >= 2 && type1Met > 150) || (nJets >= 3 && type1Met > 100)) && abs(eta1) < 1.4 && abs(eta2) < 1.4 && ( chargeProduct < 0 && pt1 > 20 && pt2 > 20 && abs(eta1)<2.4  && abs(eta2) < 2.4 && ((abs(eta1) < 1.4 || abs(eta1) > 1.6) && (abs(eta2) < 1.4 || abs(eta2) > 1.6)) && p4.M() > 20 && deltaR > 0.3) && runNr < 99999999)*(p4.M() > 120)'
p166
sg9
L885L
ssg16
(dp167
g5
L1735L
sg6
L1498L
sg7
S'weight*(((nJets >= 2 && type1Met > 150) || (nJets >= 3 && type1Met > 100)) && abs(eta1) < 1.4 && abs(eta2) < 1.4 && ( chargeProduct < 0 && pt1 > 20 && pt2 > 20 && abs(eta1)<2.4  && abs(eta2) < 2.4 && ((abs(eta1) < 1.4 || abs(eta1) > 1.6) && (abs(eta2) < 1.4 || abs(eta2) > 1.6)) && p4.M() > 20 && deltaR > 0.3) && runNr < 99999999)*(p4.M() > 20)'
p168
sg9
L2782L
sssS'mht'
p169
(dp170
g3
(dp171
g5
L652L
sg6
L538L
sg7
S'weight*(((nJets >= 2 && mht > 150) || (nJets >= 3 && mht > 100)) && abs(eta1) < 1.4 && abs(eta2) < 1.4 && ( chargeProduct < 0 && pt1 > 20 && pt2 > 20 && abs(eta1)<2.4  && abs(eta2) < 2.4 && ((abs(eta1) < 1.4 || abs(eta1) > 1.6) && (abs(eta2) < 1.4 || abs(eta2) > 1.6)) && p4.M() > 20 && deltaR > 0.3) && runNr < 99999999)*(p4.M()> 81 && p4.M() < 101)'
p172
sg9
L480L
ssg10
(dp173
g5
L650L
sg6
L521L
sg7
S'weight*(((nJets >= 2 && mht > 150) || (nJets >= 3 && mht > 100)) && abs(eta1) < 1.4 && abs(eta2) < 1.4 && ( chargeProduct < 0 && pt1 > 20 && pt2 > 20 && abs(eta1)<2.4  && abs(eta2) < 2.4 && ((abs(eta1) < 1.4 || abs(eta1) > 1.6) && (abs(eta2) < 1.4 || abs(eta2) > 1.6)) && p4.M() > 20 && deltaR > 0.3) && runNr < 99999999)*(p4.M()> 20 && p4.M() < 70)'
p174
sg9
L930L
ssg13
(dp175
g5
L596L
sg6
L556L
sg7
S'weight*(((nJets >= 2 && mht > 150) || (nJets >= 3 && mht > 100)) && abs(eta1) < 1.4 && abs(eta2) < 1.4 && ( chargeProduct < 0 && pt1 > 20 && pt2 > 20 && abs(eta1)<2.4  && abs(eta2) < 2.4 && ((abs(eta1) < 1.4 || abs(eta1) > 1.6) && (abs(eta2) < 1.4 || abs(eta2) > 1.6)) && p4.M() > 20 && deltaR > 0.3) && runNr < 99999999)*(p4.M() > 120)'
p176
sg9
L1033L
ssg16
(dp177
g5
L2288L
sg6
L1939L
sg7
S'weight*(((nJets >= 2 && mht > 150) || (nJets >= 3 && mht > 100)) && abs(eta1) < 1.4 && abs(eta2) < 1.4 && ( chargeProduct < 0 && pt1 > 20 && pt2 > 20 && abs(eta1)<2.4  && abs(eta2) < 2.4 && ((abs(eta1) < 1.4 || abs(eta1) > 1.6) && (abs(eta2) < 1.4 || abs(eta2) > 1.6)) && p4.M() > 20 && deltaR > 0.3) && runNr < 99999999)*(p4.M() > 20)'
p178
sg9
L3047L
sssS'pt2010'
p179
(dp180
g3
(dp181
g5
L317L
sg6
L256L
sg7
S'weight*(((nJets >= 2 && met > 150) || (nJets >= 3 && met > 100)) && abs(eta1) < 1.4 && abs(eta2) < 1.4 && ( chargeProduct < 0 &&  abs(eta1)<2.4  && abs(eta2) < 2.4 && ((abs(eta1) < 1.4 || abs(eta1) > 1.6) && (abs(eta2) < 1.4 || abs(eta2) > 1.6)) && p4.M() > 20 && deltaR > 0.3) && runNr < 99999999)*(((pt1 > 20 && pt2 > 10)||(pt1 > 10 && pt2 > 20)))*(p4.M()> 81 && p4.M() < 101)'
p182
sg9
L410L
ssg10
(dp183
g5
L870L
sg6
L604L
sg7
S'weight*(((nJets >= 2 && met > 150) || (nJets >= 3 && met > 100)) && abs(eta1) < 1.4 && abs(eta2) < 1.4 && ( chargeProduct < 0 &&  abs(eta1)<2.4  && abs(eta2) < 2.4 && ((abs(eta1) < 1.4 || abs(eta1) > 1.6) && (abs(eta2) < 1.4 || abs(eta2) > 1.6)) && p4.M() > 20 && deltaR > 0.3) && runNr < 99999999)*(((pt1 > 20 && pt2 > 10)||(pt1 > 10 && pt2 > 20)))*(p4.M()> 20 && p4.M() < 70)'
p184
sg9
L1273L
ssg13
(dp185
g5
L458L
sg6
L408L
sg7
S'weight*(((nJets >= 2 && met > 150) || (nJets >= 3 && met > 100)) && abs(eta1) < 1.4 && abs(eta2) < 1.4 && ( chargeProduct < 0 &&  abs(eta1)<2.4  && abs(eta2) < 2.4 && ((abs(eta1) < 1.4 || abs(eta1) > 1.6) && (abs(eta2) < 1.4 || abs(eta2) > 1.6)) && p4.M() > 20 && deltaR > 0.3) && runNr < 99999999)*(((pt1 > 20 && pt2 > 10)||(pt1 > 10 && pt2 > 20)))*(p4.M() > 120)'
p186
sg9
L792L
ssg16
(dp187
g5
L1969L
sg6
L1549L
sg7
S'weight*(((nJets >= 2 && met > 150) || (nJets >= 3 && met > 100)) && abs(eta1) < 1.4 && abs(eta2) < 1.4 && ( chargeProduct < 0 &&  abs(eta1)<2.4  && abs(eta2) < 2.4 && ((abs(eta1) < 1.4 || abs(eta1) > 1.6) && (abs(eta2) < 1.4 || abs(eta2) > 1.6)) && p4.M() > 20 && deltaR > 0.3) && runNr < 99999999)*(((pt1 > 20 && pt2 > 10)||(pt1 > 10 && pt2 > 20)))*(p4.M() > 20)'
p188
sg9
L3020L
sssS'pt3030'
p189
(dp190
g3
(dp191
g5
L170L
sg6
L160L
sg7
S'weight*(((nJets >= 2 && met > 150) || (nJets >= 3 && met > 100)) && abs(eta1) < 1.4 && abs(eta2) < 1.4 && ( chargeProduct < 0 &&  abs(eta1)<2.4  && abs(eta2) < 2.4 && ((abs(eta1) < 1.4 || abs(eta1) > 1.6) && (abs(eta2) < 1.4 || abs(eta2) > 1.6)) && p4.M() > 20 && deltaR > 0.3) && runNr < 99999999)*(pt1 > 30 && pt2 > 30)*(p4.M()> 81 && p4.M() < 101)'
p192
sg9
L237L
ssg10
(dp193
g5
L158L
sg6
L138L
sg7
S'weight*(((nJets >= 2 && met > 150) || (nJets >= 3 && met > 100)) && abs(eta1) < 1.4 && abs(eta2) < 1.4 && ( chargeProduct < 0 &&  abs(eta1)<2.4  && abs(eta2) < 2.4 && ((abs(eta1) < 1.4 || abs(eta1) > 1.6) && (abs(eta2) < 1.4 || abs(eta2) > 1.6)) && p4.M() > 20 && deltaR > 0.3) && runNr < 99999999)*(pt1 > 30 && pt2 > 30)*(p4.M()> 20 && p4.M() < 70)'
p194
sg9
L272L
ssg13
(dp195
g5
L413L
sg6
L370L
sg7
S'weight*(((nJets >= 2 && met > 150) || (nJets >= 3 && met > 100)) && abs(eta1) < 1.4 && abs(eta2) < 1.4 && ( chargeProduct < 0 &&  abs(eta1)<2.4  && abs(eta2) < 2.4 && ((abs(eta1) < 1.4 || abs(eta1) > 1.6) && (abs(eta2) < 1.4 || abs(eta2) > 1.6)) && p4.M() > 20 && deltaR > 0.3) && runNr < 99999999)*(pt1 > 30 && pt2 > 30)*(p4.M() > 120)'
p196
sg9
L705L
ssg16
(dp197
g5
L927L
sg6
L841L
sg7
S'weight*(((nJets >= 2 && met > 150) || (nJets >= 3 && met > 100)) && abs(eta1) < 1.4 && abs(eta2) < 1.4 && ( chargeProduct < 0 &&  abs(eta1)<2.4  && abs(eta2) < 2.4 && ((abs(eta1) < 1.4 || abs(eta1) > 1.6) && (abs(eta2) < 1.4 || abs(eta2) > 1.6)) && p4.M() > 20 && deltaR > 0.3) && runNr < 99999999)*(pt1 > 30 && pt2 > 30)*(p4.M() > 20)'
p198
sg9
L1514L
sssS'midPU'
p199
(dp200
g3
(dp201
g5
L67L
sg6
L63L
sg7
S'weight*(((nJets >= 2 && met > 150) || (nJets >= 3 && met > 100)) && abs(eta1) < 1.4 && abs(eta2) < 1.4 && ( chargeProduct < 0 && pt1 > 20 && pt2 > 20 && abs(eta1)<2.4  && abs(eta2) < 2.4 && ((abs(eta1) < 1.4 || abs(eta1) > 1.6) && (abs(eta2) < 1.4 || abs(eta2) > 1.6)) && p4.M() > 20 && deltaR > 0.3) && runNr < 99999999)*(nVertices >= 13 && nVertices < 17)*(p4.M()> 81 && p4.M() < 101)'
p202
sg9
L116L
ssg10
(dp203
g5
L141L
sg6
L101L
sg7
S'weight*(((nJets >= 2 && met > 150) || (nJets >= 3 && met > 100)) && abs(eta1) < 1.4 && abs(eta2) < 1.4 && ( chargeProduct < 0 && pt1 > 20 && pt2 > 20 && abs(eta1)<2.4  && abs(eta2) < 2.4 && ((abs(eta1) < 1.4 || abs(eta1) > 1.6) && (abs(eta2) < 1.4 || abs(eta2) > 1.6)) && p4.M() > 20 && deltaR > 0.3) && runNr < 99999999)*(nVertices >= 13 && nVertices < 17)*(p4.M()> 20 && p4.M() < 70)'
p204
sg9
L210L
ssg13
(dp205
g5
L133L
sg6
L96L
sg7
S'weight*(((nJets >= 2 && met > 150) || (nJets >= 3 && met > 100)) && abs(eta1) < 1.4 && abs(eta2) < 1.4 && ( chargeProduct < 0 && pt1 > 20 && pt2 > 20 && abs(eta1)<2.4  && abs(eta2) < 2.4 && ((abs(eta1) < 1.4 || abs(eta1) > 1.6) && (abs(eta2) < 1.4 || abs(eta2) > 1.6)) && p4.M() > 20 && deltaR > 0.3) && runNr < 99999999)*(nVertices >= 13 && nVertices < 17)*(p4.M() > 120)'
p206
sg9
L217L
ssg16
(dp207
g5
L418L
sg6
L320L
sg7
S'weight*(((nJets >= 2 && met > 150) || (nJets >= 3 && met > 100)) && abs(eta1) < 1.4 && abs(eta2) < 1.4 && ( chargeProduct < 0 && pt1 > 20 && pt2 > 20 && abs(eta1)<2.4  && abs(eta2) < 2.4 && ((abs(eta1) < 1.4 || abs(eta1) > 1.6) && (abs(eta2) < 1.4 || abs(eta2) > 1.6)) && p4.M() > 20 && deltaR > 0.3) && runNr < 99999999)*(nVertices >= 13 && nVertices < 17)*(p4.M() > 20)'
p208
sg9
L695L
sss.