(dp0
S'OneBTags'
p1
(dp2
S'zMass'
p3
(dp4
S'MM'
p5
L115L
sS'EE'
p6
L83L
sS'cut'
p7
S'weight*(((nJets >= 2 && met > 150) || (nJets >= 3 && met > 100)) && abs(eta1) < 1.4 && abs(eta2) < 1.4 && ( chargeProduct < 0 && pt1 > 20 && pt2 > 20 && abs(eta1)<2.4  && abs(eta2) < 2.4 && ((abs(eta1) < 1.4 || abs(eta1) > 1.6) && (abs(eta2) < 1.4 || abs(eta2) > 1.6)) && p4.M() > 20 && deltaR > 0.3 && !(runNr == 195649 && lumiSec == 49 && eventNr == 75858433) && !(runNr == 195749 && lumiSec == 108 && eventNr == 216906941)) && runNr < 99999999)*(nBJets == 1)*(p4.M()> 81 && p4.M() < 101)'
p8
sS'EM'
p9
L187L
ssS'edgeMass'
p10
(dp11
g5
L204L
sg6
L184L
sg7
S'weight*(((nJets >= 2 && met > 150) || (nJets >= 3 && met > 100)) && abs(eta1) < 1.4 && abs(eta2) < 1.4 && ( chargeProduct < 0 && pt1 > 20 && pt2 > 20 && abs(eta1)<2.4  && abs(eta2) < 2.4 && ((abs(eta1) < 1.4 || abs(eta1) > 1.6) && (abs(eta2) < 1.4 || abs(eta2) > 1.6)) && p4.M() > 20 && deltaR > 0.3 && !(runNr == 195649 && lumiSec == 49 && eventNr == 75858433) && !(runNr == 195749 && lumiSec == 108 && eventNr == 216906941)) && runNr < 99999999)*(nBJets == 1)*(p4.M()> 20 && p4.M() < 70)'
p12
sg9
L325L
ssS'highMass'
p13
(dp14
g5
L200L
sg6
L196L
sg7
S'weight*(((nJets >= 2 && met > 150) || (nJets >= 3 && met > 100)) && abs(eta1) < 1.4 && abs(eta2) < 1.4 && ( chargeProduct < 0 && pt1 > 20 && pt2 > 20 && abs(eta1)<2.4  && abs(eta2) < 2.4 && ((abs(eta1) < 1.4 || abs(eta1) > 1.6) && (abs(eta2) < 1.4 || abs(eta2) > 1.6)) && p4.M() > 20 && deltaR > 0.3 && !(runNr == 195649 && lumiSec == 49 && eventNr == 75858433) && !(runNr == 195749 && lumiSec == 108 && eventNr == 216906941)) && runNr < 99999999)*(nBJets == 1)*(p4.M() > 120)'
p15
sg9
L372L
ssS'fullMassRange'
p16
(dp17
g5
L649L
sg6
L593L
sg7
S'weight*(((nJets >= 2 && met > 150) || (nJets >= 3 && met > 100)) && abs(eta1) < 1.4 && abs(eta2) < 1.4 && ( chargeProduct < 0 && pt1 > 20 && pt2 > 20 && abs(eta1)<2.4  && abs(eta2) < 2.4 && ((abs(eta1) < 1.4 || abs(eta1) > 1.6) && (abs(eta2) < 1.4 || abs(eta2) > 1.6)) && p4.M() > 20 && deltaR > 0.3 && !(runNr == 195649 && lumiSec == 49 && eventNr == 75858433) && !(runNr == 195749 && lumiSec == 108 && eventNr == 216906941)) && runNr < 99999999)*(nBJets == 1)*(p4.M() > 20)'
p18
sg9
L1116L
sssS'ht100to300'
p19
(dp20
g3
(dp21
g5
L122L
sg6
L105L
sg7
S'weight*(((nJets >= 2 && met > 150) || (nJets >= 3 && met > 100)) && abs(eta1) < 1.4 && abs(eta2) < 1.4 && ( chargeProduct < 0 && pt1 > 20 && pt2 > 20 && abs(eta1)<2.4  && abs(eta2) < 2.4 && ((abs(eta1) < 1.4 || abs(eta1) > 1.6) && (abs(eta2) < 1.4 || abs(eta2) > 1.6)) && p4.M() > 20 && deltaR > 0.3 && !(runNr == 195649 && lumiSec == 49 && eventNr == 75858433) && !(runNr == 195749 && lumiSec == 108 && eventNr == 216906941)) && runNr < 99999999)*(ht > 100 && ht < 300)*(p4.M()> 81 && p4.M() < 101)'
p22
sg9
L206L
ssg10
(dp23
g5
L249L
sg6
L208L
sg7
S'weight*(((nJets >= 2 && met > 150) || (nJets >= 3 && met > 100)) && abs(eta1) < 1.4 && abs(eta2) < 1.4 && ( chargeProduct < 0 && pt1 > 20 && pt2 > 20 && abs(eta1)<2.4  && abs(eta2) < 2.4 && ((abs(eta1) < 1.4 || abs(eta1) > 1.6) && (abs(eta2) < 1.4 || abs(eta2) > 1.6)) && p4.M() > 20 && deltaR > 0.3 && !(runNr == 195649 && lumiSec == 49 && eventNr == 75858433) && !(runNr == 195749 && lumiSec == 108 && eventNr == 216906941)) && runNr < 99999999)*(ht > 100 && ht < 300)*(p4.M()> 20 && p4.M() < 70)'
p24
sg9
L403L
ssg13
(dp25
g5
L212L
sg6
L201L
sg7
S'weight*(((nJets >= 2 && met > 150) || (nJets >= 3 && met > 100)) && abs(eta1) < 1.4 && abs(eta2) < 1.4 && ( chargeProduct < 0 && pt1 > 20 && pt2 > 20 && abs(eta1)<2.4  && abs(eta2) < 2.4 && ((abs(eta1) < 1.4 || abs(eta1) > 1.6) && (abs(eta2) < 1.4 || abs(eta2) > 1.6)) && p4.M() > 20 && deltaR > 0.3 && !(runNr == 195649 && lumiSec == 49 && eventNr == 75858433) && !(runNr == 195749 && lumiSec == 108 && eventNr == 216906941)) && runNr < 99999999)*(ht > 100 && ht < 300)*(p4.M() > 120)'
p26
sg9
L393L
ssg16
(dp27
g5
L736L
sg6
L649L
sg7
S'weight*(((nJets >= 2 && met > 150) || (nJets >= 3 && met > 100)) && abs(eta1) < 1.4 && abs(eta2) < 1.4 && ( chargeProduct < 0 && pt1 > 20 && pt2 > 20 && abs(eta1)<2.4  && abs(eta2) < 2.4 && ((abs(eta1) < 1.4 || abs(eta1) > 1.6) && (abs(eta2) < 1.4 || abs(eta2) > 1.6)) && p4.M() > 20 && deltaR > 0.3 && !(runNr == 195649 && lumiSec == 49 && eventNr == 75858433) && !(runNr == 195749 && lumiSec == 108 && eventNr == 216906941)) && runNr < 99999999)*(ht > 100 && ht < 300)*(p4.M() > 20)'
p28
sg9
L1241L
sssS'geOneBTags'
p29
(dp30
g3
(dp31
g5
L176L
sg6
L140L
sg7
S'weight*(((nJets >= 2 && met > 150) || (nJets >= 3 && met > 100)) && abs(eta1) < 1.4 && abs(eta2) < 1.4 && ( chargeProduct < 0 && pt1 > 20 && pt2 > 20 && abs(eta1)<2.4  && abs(eta2) < 2.4 && ((abs(eta1) < 1.4 || abs(eta1) > 1.6) && (abs(eta2) < 1.4 || abs(eta2) > 1.6)) && p4.M() > 20 && deltaR > 0.3 && !(runNr == 195649 && lumiSec == 49 && eventNr == 75858433) && !(runNr == 195749 && lumiSec == 108 && eventNr == 216906941)) && runNr < 99999999)*(nBJets >= 1)*(p4.M()> 81 && p4.M() < 101)'
p32
sg9
L289L
ssg10
(dp33
g5
L371L
sg6
L298L
sg7
S'weight*(((nJets >= 2 && met > 150) || (nJets >= 3 && met > 100)) && abs(eta1) < 1.4 && abs(eta2) < 1.4 && ( chargeProduct < 0 && pt1 > 20 && pt2 > 20 && abs(eta1)<2.4  && abs(eta2) < 2.4 && ((abs(eta1) < 1.4 || abs(eta1) > 1.6) && (abs(eta2) < 1.4 || abs(eta2) > 1.6)) && p4.M() > 20 && deltaR > 0.3 && !(runNr == 195649 && lumiSec == 49 && eventNr == 75858433) && !(runNr == 195749 && lumiSec == 108 && eventNr == 216906941)) && runNr < 99999999)*(nBJets >= 1)*(p4.M()> 20 && p4.M() < 70)'
p34
sg9
L562L
ssg13
(dp35
g5
L350L
sg6
L320L
sg7
S'weight*(((nJets >= 2 && met > 150) || (nJets >= 3 && met > 100)) && abs(eta1) < 1.4 && abs(eta2) < 1.4 && ( chargeProduct < 0 && pt1 > 20 && pt2 > 20 && abs(eta1)<2.4  && abs(eta2) < 2.4 && ((abs(eta1) < 1.4 || abs(eta1) > 1.6) && (abs(eta2) < 1.4 || abs(eta2) > 1.6)) && p4.M() > 20 && deltaR > 0.3 && !(runNr == 195649 && lumiSec == 49 && eventNr == 75858433) && !(runNr == 195749 && lumiSec == 108 && eventNr == 216906941)) && runNr < 99999999)*(nBJets >= 1)*(p4.M() > 120)'
p36
sg9
L616L
ssg16
(dp37
g5
L1117L
sg6
L952L
sg7
S'weight*(((nJets >= 2 && met > 150) || (nJets >= 3 && met > 100)) && abs(eta1) < 1.4 && abs(eta2) < 1.4 && ( chargeProduct < 0 && pt1 > 20 && pt2 > 20 && abs(eta1)<2.4  && abs(eta2) < 2.4 && ((abs(eta1) < 1.4 || abs(eta1) > 1.6) && (abs(eta2) < 1.4 || abs(eta2) > 1.6)) && p4.M() > 20 && deltaR > 0.3 && !(runNr == 195649 && lumiSec == 49 && eventNr == 75858433) && !(runNr == 195749 && lumiSec == 108 && eventNr == 216906941)) && runNr < 99999999)*(nBJets >= 1)*(p4.M() > 20)'
p38
sg9
L1855L
sssS'lowPU'
p39
(dp40
g3
(dp41
g5
L60L
sg6
L62L
sg7
S'weight*(((nJets >= 2 && met > 150) || (nJets >= 3 && met > 100)) && abs(eta1) < 1.4 && abs(eta2) < 1.4 && ( chargeProduct < 0 && pt1 > 20 && pt2 > 20 && abs(eta1)<2.4  && abs(eta2) < 2.4 && ((abs(eta1) < 1.4 || abs(eta1) > 1.6) && (abs(eta2) < 1.4 || abs(eta2) > 1.6)) && p4.M() > 20 && deltaR > 0.3 && !(runNr == 195649 && lumiSec == 49 && eventNr == 75858433) && !(runNr == 195749 && lumiSec == 108 && eventNr == 216906941)) && runNr < 99999999)*(nVertices < 11)*(p4.M()> 81 && p4.M() < 101)'
p42
sg9
L83L
ssg10
(dp43
g5
L98L
sg6
L93L
sg7
S'weight*(((nJets >= 2 && met > 150) || (nJets >= 3 && met > 100)) && abs(eta1) < 1.4 && abs(eta2) < 1.4 && ( chargeProduct < 0 && pt1 > 20 && pt2 > 20 && abs(eta1)<2.4  && abs(eta2) < 2.4 && ((abs(eta1) < 1.4 || abs(eta1) > 1.6) && (abs(eta2) < 1.4 || abs(eta2) > 1.6)) && p4.M() > 20 && deltaR > 0.3 && !(runNr == 195649 && lumiSec == 49 && eventNr == 75858433) && !(runNr == 195749 && lumiSec == 108 && eventNr == 216906941)) && runNr < 99999999)*(nVertices < 11)*(p4.M()> 20 && p4.M() < 70)'
p44
sg9
L188L
ssg13
(dp45
g5
L112L
sg6
L103L
sg7
S'weight*(((nJets >= 2 && met > 150) || (nJets >= 3 && met > 100)) && abs(eta1) < 1.4 && abs(eta2) < 1.4 && ( chargeProduct < 0 && pt1 > 20 && pt2 > 20 && abs(eta1)<2.4  && abs(eta2) < 2.4 && ((abs(eta1) < 1.4 || abs(eta1) > 1.6) && (abs(eta2) < 1.4 || abs(eta2) > 1.6)) && p4.M() > 20 && deltaR > 0.3 && !(runNr == 195649 && lumiSec == 49 && eventNr == 75858433) && !(runNr == 195749 && lumiSec == 108 && eventNr == 216906941)) && runNr < 99999999)*(nVertices < 11)*(p4.M() > 120)'
p46
sg9
L171L
ssg16
(dp47
g5
L332L
sg6
L308L
sg7
S'weight*(((nJets >= 2 && met > 150) || (nJets >= 3 && met > 100)) && abs(eta1) < 1.4 && abs(eta2) < 1.4 && ( chargeProduct < 0 && pt1 > 20 && pt2 > 20 && abs(eta1)<2.4  && abs(eta2) < 2.4 && ((abs(eta1) < 1.4 || abs(eta1) > 1.6) && (abs(eta2) < 1.4 || abs(eta2) > 1.6)) && p4.M() > 20 && deltaR > 0.3 && !(runNr == 195649 && lumiSec == 49 && eventNr == 75858433) && !(runNr == 195749 && lumiSec == 108 && eventNr == 216906941)) && runNr < 99999999)*(nVertices < 11)*(p4.M() > 20)'
p48
sg9
L543L
sssS'default'
p49
(dp50
g3
(dp51
g5
L264L
sg6
L237L
sg7
S'weight*(((nJets >= 2 && met > 150) || (nJets >= 3 && met > 100)) && abs(eta1) < 1.4 && abs(eta2) < 1.4 && ( chargeProduct < 0 && pt1 > 20 && pt2 > 20 && abs(eta1)<2.4  && abs(eta2) < 2.4 && ((abs(eta1) < 1.4 || abs(eta1) > 1.6) && (abs(eta2) < 1.4 || abs(eta2) > 1.6)) && p4.M() > 20 && deltaR > 0.3 && !(runNr == 195649 && lumiSec == 49 && eventNr == 75858433) && !(runNr == 195749 && lumiSec == 108 && eventNr == 216906941)) && runNr < 99999999)*(p4.M()> 81 && p4.M() < 101)'
p52
sg9
L371L
ssg10
(dp53
g5
L479L
sg6
L392L
sg7
S'weight*(((nJets >= 2 && met > 150) || (nJets >= 3 && met > 100)) && abs(eta1) < 1.4 && abs(eta2) < 1.4 && ( chargeProduct < 0 && pt1 > 20 && pt2 > 20 && abs(eta1)<2.4  && abs(eta2) < 2.4 && ((abs(eta1) < 1.4 || abs(eta1) > 1.6) && (abs(eta2) < 1.4 || abs(eta2) > 1.6)) && p4.M() > 20 && deltaR > 0.3 && !(runNr == 195649 && lumiSec == 49 && eventNr == 75858433) && !(runNr == 195749 && lumiSec == 108 && eventNr == 216906941)) && runNr < 99999999)*(p4.M()> 20 && p4.M() < 70)'
p54
sg9
L750L
ssg13
(dp55
g5
L450L
sg6
L408L
sg7
S'weight*(((nJets >= 2 && met > 150) || (nJets >= 3 && met > 100)) && abs(eta1) < 1.4 && abs(eta2) < 1.4 && ( chargeProduct < 0 && pt1 > 20 && pt2 > 20 && abs(eta1)<2.4  && abs(eta2) < 2.4 && ((abs(eta1) < 1.4 || abs(eta1) > 1.6) && (abs(eta2) < 1.4 || abs(eta2) > 1.6)) && p4.M() > 20 && deltaR > 0.3 && !(runNr == 195649 && lumiSec == 49 && eventNr == 75858433) && !(runNr == 195749 && lumiSec == 108 && eventNr == 216906941)) && runNr < 99999999)*(p4.M() > 120)'
p56
sg9
L785L
ssg16
(dp57
g5
L1469L
sg6
L1286L
sg7
S'weight*(((nJets >= 2 && met > 150) || (nJets >= 3 && met > 100)) && abs(eta1) < 1.4 && abs(eta2) < 1.4 && ( chargeProduct < 0 && pt1 > 20 && pt2 > 20 && abs(eta1)<2.4  && abs(eta2) < 2.4 && ((abs(eta1) < 1.4 || abs(eta1) > 1.6) && (abs(eta2) < 1.4 || abs(eta2) > 1.6)) && p4.M() > 20 && deltaR > 0.3 && !(runNr == 195649 && lumiSec == 49 && eventNr == 75858433) && !(runNr == 195749 && lumiSec == 108 && eventNr == 216906941)) && runNr < 99999999)*(p4.M() > 20)'
p58
sg9
L2376L
sssS'pt3020'
p59
(dp60
g3
(dp61
g5
L450L
sg6
L408L
sg7
S'weight*(((nJets >= 2 && met > 150) || (nJets >= 3 && met > 100)) && abs(eta1) < 1.4 && abs(eta2) < 1.4 && ( chargeProduct < 0 && pt1 > 20 && pt2 > 20 && abs(eta1)<2.4  && abs(eta2) < 2.4 && ((abs(eta1) < 1.4 || abs(eta1) > 1.6) && (abs(eta2) < 1.4 || abs(eta2) > 1.6)) && p4.M() > 20 && deltaR > 0.3 && !(runNr == 195649 && lumiSec == 49 && eventNr == 75858433) && !(runNr == 195749 && lumiSec == 108 && eventNr == 216906941)) && runNr < 99999999)*(((pt1 > 30 && pt2 > 20)||(pt1 > 20 && pt2 > 30)))*(p4.M() > 120)'
p62
sg9
L785L
ssg10
(dp63
g5
L450L
sg6
L408L
sg7
g62
sg9
L785L
ssg13
(dp64
g5
L450L
sg6
L408L
sg7
g62
sg9
L785L
ssg16
(dp65
g5
L450L
sg6
L408L
sg7
g62
sg9
L785L
sssS'ht300'
p66
(dp67
g3
(dp68
g5
L141L
sg6
L130L
sg7
S'weight*(((nJets >= 2 && met > 150) || (nJets >= 3 && met > 100)) && abs(eta1) < 1.4 && abs(eta2) < 1.4 && ( chargeProduct < 0 && pt1 > 20 && pt2 > 20 && abs(eta1)<2.4  && abs(eta2) < 2.4 && ((abs(eta1) < 1.4 || abs(eta1) > 1.6) && (abs(eta2) < 1.4 || abs(eta2) > 1.6)) && p4.M() > 20 && deltaR > 0.3 && !(runNr == 195649 && lumiSec == 49 && eventNr == 75858433) && !(runNr == 195749 && lumiSec == 108 && eventNr == 216906941)) && runNr < 99999999)*(ht > 300)*(p4.M()> 81 && p4.M() < 101)'
p69
sg9
L164L
ssg10
(dp70
g5
L230L
sg6
L184L
sg7
S'weight*(((nJets >= 2 && met > 150) || (nJets >= 3 && met > 100)) && abs(eta1) < 1.4 && abs(eta2) < 1.4 && ( chargeProduct < 0 && pt1 > 20 && pt2 > 20 && abs(eta1)<2.4  && abs(eta2) < 2.4 && ((abs(eta1) < 1.4 || abs(eta1) > 1.6) && (abs(eta2) < 1.4 || abs(eta2) > 1.6)) && p4.M() > 20 && deltaR > 0.3 && !(runNr == 195649 && lumiSec == 49 && eventNr == 75858433) && !(runNr == 195749 && lumiSec == 108 && eventNr == 216906941)) && runNr < 99999999)*(ht > 300)*(p4.M()> 20 && p4.M() < 70)'
p71
sg9
L346L
ssg13
(dp72
g5
L235L
sg6
L204L
sg7
S'weight*(((nJets >= 2 && met > 150) || (nJets >= 3 && met > 100)) && abs(eta1) < 1.4 && abs(eta2) < 1.4 && ( chargeProduct < 0 && pt1 > 20 && pt2 > 20 && abs(eta1)<2.4  && abs(eta2) < 2.4 && ((abs(eta1) < 1.4 || abs(eta1) > 1.6) && (abs(eta2) < 1.4 || abs(eta2) > 1.6)) && p4.M() > 20 && deltaR > 0.3 && !(runNr == 195649 && lumiSec == 49 && eventNr == 75858433) && !(runNr == 195749 && lumiSec == 108 && eventNr == 216906941)) && runNr < 99999999)*(ht > 300)*(p4.M() > 120)'
p73
sg9
L388L
ssg16
(dp74
g5
L729L
sg6
L631L
sg7
S'weight*(((nJets >= 2 && met > 150) || (nJets >= 3 && met > 100)) && abs(eta1) < 1.4 && abs(eta2) < 1.4 && ( chargeProduct < 0 && pt1 > 20 && pt2 > 20 && abs(eta1)<2.4  && abs(eta2) < 2.4 && ((abs(eta1) < 1.4 || abs(eta1) > 1.6) && (abs(eta2) < 1.4 || abs(eta2) > 1.6)) && p4.M() > 20 && deltaR > 0.3 && !(runNr == 195649 && lumiSec == 49 && eventNr == 75858433) && !(runNr == 195749 && lumiSec == 108 && eventNr == 216906941)) && runNr < 99999999)*(ht > 300)*(p4.M() > 20)'
p75
sg9
L1129L
sssS'highPU'
p76
(dp77
g3
(dp78
g5
L115L
sg6
L92L
sg7
S'weight*(((nJets >= 2 && met > 150) || (nJets >= 3 && met > 100)) && abs(eta1) < 1.4 && abs(eta2) < 1.4 && ( chargeProduct < 0 && pt1 > 20 && pt2 > 20 && abs(eta1)<2.4  && abs(eta2) < 2.4 && ((abs(eta1) < 1.4 || abs(eta1) > 1.6) && (abs(eta2) < 1.4 || abs(eta2) > 1.6)) && p4.M() > 20 && deltaR > 0.3 && !(runNr == 195649 && lumiSec == 49 && eventNr == 75858433) && !(runNr == 195749 && lumiSec == 108 && eventNr == 216906941)) && runNr < 99999999)*(nVertices >= 16)*(p4.M()> 81 && p4.M() < 101)'
p79
sg9
L139L
ssg10
(dp80
g5
L206L
sg6
L152L
sg7
S'weight*(((nJets >= 2 && met > 150) || (nJets >= 3 && met > 100)) && abs(eta1) < 1.4 && abs(eta2) < 1.4 && ( chargeProduct < 0 && pt1 > 20 && pt2 > 20 && abs(eta1)<2.4  && abs(eta2) < 2.4 && ((abs(eta1) < 1.4 || abs(eta1) > 1.6) && (abs(eta2) < 1.4 || abs(eta2) > 1.6)) && p4.M() > 20 && deltaR > 0.3 && !(runNr == 195649 && lumiSec == 49 && eventNr == 75858433) && !(runNr == 195749 && lumiSec == 108 && eventNr == 216906941)) && runNr < 99999999)*(nVertices >= 16)*(p4.M()> 20 && p4.M() < 70)'
p81
sg9
L297L
ssg13
(dp82
g5
L185L
sg6
L159L
sg7
S'weight*(((nJets >= 2 && met > 150) || (nJets >= 3 && met > 100)) && abs(eta1) < 1.4 && abs(eta2) < 1.4 && ( chargeProduct < 0 && pt1 > 20 && pt2 > 20 && abs(eta1)<2.4  && abs(eta2) < 2.4 && ((abs(eta1) < 1.4 || abs(eta1) > 1.6) && (abs(eta2) < 1.4 || abs(eta2) > 1.6)) && p4.M() > 20 && deltaR > 0.3 && !(runNr == 195649 && lumiSec == 49 && eventNr == 75858433) && !(runNr == 195749 && lumiSec == 108 && eventNr == 216906941)) && runNr < 99999999)*(nVertices >= 16)*(p4.M() > 120)'
p83
sg9
L339L
ssg16
(dp84
g5
L616L
sg6
L517L
sg7
S'weight*(((nJets >= 2 && met > 150) || (nJets >= 3 && met > 100)) && abs(eta1) < 1.4 && abs(eta2) < 1.4 && ( chargeProduct < 0 && pt1 > 20 && pt2 > 20 && abs(eta1)<2.4  && abs(eta2) < 2.4 && ((abs(eta1) < 1.4 || abs(eta1) > 1.6) && (abs(eta2) < 1.4 || abs(eta2) > 1.6)) && p4.M() > 20 && deltaR > 0.3 && !(runNr == 195649 && lumiSec == 49 && eventNr == 75858433) && !(runNr == 195749 && lumiSec == 108 && eventNr == 216906941)) && runNr < 99999999)*(nVertices >= 16)*(p4.M() > 20)'
p85
sg9
L974L
sssS'tcMet'
p86
(dp87
g3
(dp88
g5
L497L
sg6
L222L
sg7
S'weight*(((nJets >= 2 && tcMet > 150) || (nJets >= 3 && tcMet > 100)) && abs(eta1) < 1.4 && abs(eta2) < 1.4 && ( chargeProduct < 0 && pt1 > 20 && pt2 > 20 && abs(eta1)<2.4  && abs(eta2) < 2.4 && ((abs(eta1) < 1.4 || abs(eta1) > 1.6) && (abs(eta2) < 1.4 || abs(eta2) > 1.6)) && p4.M() > 20 && deltaR > 0.3 && !(runNr == 195649 && lumiSec == 49 && eventNr == 75858433) && !(runNr == 195749 && lumiSec == 108 && eventNr == 216906941)) && runNr < 99999999)*(p4.M()> 81 && p4.M() < 101)'
p89
sg9
L344L
ssg10
(dp90
g5
L495L
sg6
L361L
sg7
S'weight*(((nJets >= 2 && tcMet > 150) || (nJets >= 3 && tcMet > 100)) && abs(eta1) < 1.4 && abs(eta2) < 1.4 && ( chargeProduct < 0 && pt1 > 20 && pt2 > 20 && abs(eta1)<2.4  && abs(eta2) < 2.4 && ((abs(eta1) < 1.4 || abs(eta1) > 1.6) && (abs(eta2) < 1.4 || abs(eta2) > 1.6)) && p4.M() > 20 && deltaR > 0.3 && !(runNr == 195649 && lumiSec == 49 && eventNr == 75858433) && !(runNr == 195749 && lumiSec == 108 && eventNr == 216906941)) && runNr < 99999999)*(p4.M()> 20 && p4.M() < 70)'
p91
sg9
L702L
ssg13
(dp92
g5
L531L
sg6
L397L
sg7
S'weight*(((nJets >= 2 && tcMet > 150) || (nJets >= 3 && tcMet > 100)) && abs(eta1) < 1.4 && abs(eta2) < 1.4 && ( chargeProduct < 0 && pt1 > 20 && pt2 > 20 && abs(eta1)<2.4  && abs(eta2) < 2.4 && ((abs(eta1) < 1.4 || abs(eta1) > 1.6) && (abs(eta2) < 1.4 || abs(eta2) > 1.6)) && p4.M() > 20 && deltaR > 0.3 && !(runNr == 195649 && lumiSec == 49 && eventNr == 75858433) && !(runNr == 195749 && lumiSec == 108 && eventNr == 216906941)) && runNr < 99999999)*(p4.M() > 120)'
p93
sg9
L807L
ssg16
(dp94
g5
L1854L
sg6
L1216L
sg7
S'weight*(((nJets >= 2 && tcMet > 150) || (nJets >= 3 && tcMet > 100)) && abs(eta1) < 1.4 && abs(eta2) < 1.4 && ( chargeProduct < 0 && pt1 > 20 && pt2 > 20 && abs(eta1)<2.4  && abs(eta2) < 2.4 && ((abs(eta1) < 1.4 || abs(eta1) > 1.6) && (abs(eta2) < 1.4 || abs(eta2) > 1.6)) && p4.M() > 20 && deltaR > 0.3 && !(runNr == 195649 && lumiSec == 49 && eventNr == 75858433) && !(runNr == 195749 && lumiSec == 108 && eventNr == 216906941)) && runNr < 99999999)*(p4.M() > 20)'
p95
sg9
L2314L
sssS'geTwoBTags'
p96
(dp97
g3
(dp98
g5
L61L
sg6
L57L
sg7
S'weight*(((nJets >= 2 && met > 150) || (nJets >= 3 && met > 100)) && abs(eta1) < 1.4 && abs(eta2) < 1.4 && ( chargeProduct < 0 && pt1 > 20 && pt2 > 20 && abs(eta1)<2.4  && abs(eta2) < 2.4 && ((abs(eta1) < 1.4 || abs(eta1) > 1.6) && (abs(eta2) < 1.4 || abs(eta2) > 1.6)) && p4.M() > 20 && deltaR > 0.3 && !(runNr == 195649 && lumiSec == 49 && eventNr == 75858433) && !(runNr == 195749 && lumiSec == 108 && eventNr == 216906941)) && runNr < 99999999)*(nBJets >= 2)*(p4.M()> 81 && p4.M() < 101)'
p99
sg9
L102L
ssg10
(dp100
g5
L167L
sg6
L114L
sg7
S'weight*(((nJets >= 2 && met > 150) || (nJets >= 3 && met > 100)) && abs(eta1) < 1.4 && abs(eta2) < 1.4 && ( chargeProduct < 0 && pt1 > 20 && pt2 > 20 && abs(eta1)<2.4  && abs(eta2) < 2.4 && ((abs(eta1) < 1.4 || abs(eta1) > 1.6) && (abs(eta2) < 1.4 || abs(eta2) > 1.6)) && p4.M() > 20 && deltaR > 0.3 && !(runNr == 195649 && lumiSec == 49 && eventNr == 75858433) && !(runNr == 195749 && lumiSec == 108 && eventNr == 216906941)) && runNr < 99999999)*(nBJets >= 2)*(p4.M()> 20 && p4.M() < 70)'
p101
sg9
L237L
ssg13
(dp102
g5
L150L
sg6
L124L
sg7
S'weight*(((nJets >= 2 && met > 150) || (nJets >= 3 && met > 100)) && abs(eta1) < 1.4 && abs(eta2) < 1.4 && ( chargeProduct < 0 && pt1 > 20 && pt2 > 20 && abs(eta1)<2.4  && abs(eta2) < 2.4 && ((abs(eta1) < 1.4 || abs(eta1) > 1.6) && (abs(eta2) < 1.4 || abs(eta2) > 1.6)) && p4.M() > 20 && deltaR > 0.3 && !(runNr == 195649 && lumiSec == 49 && eventNr == 75858433) && !(runNr == 195749 && lumiSec == 108 && eventNr == 216906941)) && runNr < 99999999)*(nBJets >= 2)*(p4.M() > 120)'
p103
sg9
L244L
ssg16
(dp104
g5
L468L
sg6
L359L
sg7
S'weight*(((nJets >= 2 && met > 150) || (nJets >= 3 && met > 100)) && abs(eta1) < 1.4 && abs(eta2) < 1.4 && ( chargeProduct < 0 && pt1 > 20 && pt2 > 20 && abs(eta1)<2.4  && abs(eta2) < 2.4 && ((abs(eta1) < 1.4 || abs(eta1) > 1.6) && (abs(eta2) < 1.4 || abs(eta2) > 1.6)) && p4.M() > 20 && deltaR > 0.3 && !(runNr == 195649 && lumiSec == 49 && eventNr == 75858433) && !(runNr == 195749 && lumiSec == 108 && eventNr == 216906941)) && runNr < 99999999)*(nBJets >= 2)*(p4.M() > 20)'
p105
sg9
L739L
sssS'TwoBTags'
p106
(dp107
g3
(dp108
g5
L58L
sg6
L54L
sg7
S'weight*(((nJets >= 2 && met > 150) || (nJets >= 3 && met > 100)) && abs(eta1) < 1.4 && abs(eta2) < 1.4 && ( chargeProduct < 0 && pt1 > 20 && pt2 > 20 && abs(eta1)<2.4  && abs(eta2) < 2.4 && ((abs(eta1) < 1.4 || abs(eta1) > 1.6) && (abs(eta2) < 1.4 || abs(eta2) > 1.6)) && p4.M() > 20 && deltaR > 0.3 && !(runNr == 195649 && lumiSec == 49 && eventNr == 75858433) && !(runNr == 195749 && lumiSec == 108 && eventNr == 216906941)) && runNr < 99999999)*(nBJets == 2)*(p4.M()> 81 && p4.M() < 101)'
p109
sg9
L97L
ssg10
(dp110
g5
L153L
sg6
L107L
sg7
S'weight*(((nJets >= 2 && met > 150) || (nJets >= 3 && met > 100)) && abs(eta1) < 1.4 && abs(eta2) < 1.4 && ( chargeProduct < 0 && pt1 > 20 && pt2 > 20 && abs(eta1)<2.4  && abs(eta2) < 2.4 && ((abs(eta1) < 1.4 || abs(eta1) > 1.6) && (abs(eta2) < 1.4 || abs(eta2) > 1.6)) && p4.M() > 20 && deltaR > 0.3 && !(runNr == 195649 && lumiSec == 49 && eventNr == 75858433) && !(runNr == 195749 && lumiSec == 108 && eventNr == 216906941)) && runNr < 99999999)*(nBJets == 2)*(p4.M()> 20 && p4.M() < 70)'
p111
sg9
L223L
ssg13
(dp112
g5
L141L
sg6
L114L
sg7
S'weight*(((nJets >= 2 && met > 150) || (nJets >= 3 && met > 100)) && abs(eta1) < 1.4 && abs(eta2) < 1.4 && ( chargeProduct < 0 && pt1 > 20 && pt2 > 20 && abs(eta1)<2.4  && abs(eta2) < 2.4 && ((abs(eta1) < 1.4 || abs(eta1) > 1.6) && (abs(eta2) < 1.4 || abs(eta2) > 1.6)) && p4.M() > 20 && deltaR > 0.3 && !(runNr == 195649 && lumiSec == 49 && eventNr == 75858433) && !(runNr == 195749 && lumiSec == 108 && eventNr == 216906941)) && runNr < 99999999)*(nBJets == 2)*(p4.M() > 120)'
p113
sg9
L232L
ssg16
(dp114
g5
L440L
sg6
L336L
sg7
S'weight*(((nJets >= 2 && met > 150) || (nJets >= 3 && met > 100)) && abs(eta1) < 1.4 && abs(eta2) < 1.4 && ( chargeProduct < 0 && pt1 > 20 && pt2 > 20 && abs(eta1)<2.4  && abs(eta2) < 2.4 && ((abs(eta1) < 1.4 || abs(eta1) > 1.6) && (abs(eta2) < 1.4 || abs(eta2) > 1.6)) && p4.M() > 20 && deltaR > 0.3 && !(runNr == 195649 && lumiSec == 49 && eventNr == 75858433) && !(runNr == 195749 && lumiSec == 108 && eventNr == 216906941)) && runNr < 99999999)*(nBJets == 2)*(p4.M() > 20)'
p115
sg9
L698L
sssS'pt3010'
p116
(dp117
g3
(dp118
g5
L450L
sg6
L408L
sg7
S'weight*(((nJets >= 2 && met > 150) || (nJets >= 3 && met > 100)) && abs(eta1) < 1.4 && abs(eta2) < 1.4 && ( chargeProduct < 0 && pt1 > 20 && pt2 > 20 && abs(eta1)<2.4  && abs(eta2) < 2.4 && ((abs(eta1) < 1.4 || abs(eta1) > 1.6) && (abs(eta2) < 1.4 || abs(eta2) > 1.6)) && p4.M() > 20 && deltaR > 0.3 && !(runNr == 195649 && lumiSec == 49 && eventNr == 75858433) && !(runNr == 195749 && lumiSec == 108 && eventNr == 216906941)) && runNr < 99999999)*(((pt1 > 30 && pt2 > 10)||(pt1 > 10 && pt2 > 30)))*(p4.M() > 120)'
p119
sg9
L785L
ssg10
(dp120
g5
L450L
sg6
L408L
sg7
g119
sg9
L785L
ssg13
(dp121
g5
L450L
sg6
L408L
sg7
g119
sg9
L785L
ssg16
(dp122
g5
L450L
sg6
L408L
sg7
g119
sg9
L785L
sssS'TightIso'
p123
(dp124
g3
(dp125
g5
L195L
sg6
L166L
sg7
S'weight*(((nJets >= 2 && met > 150) || (nJets >= 3 && met > 100)) && abs(eta1) < 1.4 && abs(eta2) < 1.4 && ( chargeProduct < 0 && pt1 > 20 && pt2 > 20 && abs(eta1)<2.4  && abs(eta2) < 2.4 && ((abs(eta1) < 1.4 || abs(eta1) > 1.6) && (abs(eta2) < 1.4 || abs(eta2) > 1.6)) && p4.M() > 20 && deltaR > 0.3 && !(runNr == 195649 && lumiSec == 49 && eventNr == 75858433) && !(runNr == 195749 && lumiSec == 108 && eventNr == 216906941)) && runNr < 99999999)*(id1 < 0.05 && id2 < 0.05)*(p4.M()> 81 && p4.M() < 101)'
p126
sg9
L259L
ssg10
(dp127
g5
L303L
sg6
L271L
sg7
S'weight*(((nJets >= 2 && met > 150) || (nJets >= 3 && met > 100)) && abs(eta1) < 1.4 && abs(eta2) < 1.4 && ( chargeProduct < 0 && pt1 > 20 && pt2 > 20 && abs(eta1)<2.4  && abs(eta2) < 2.4 && ((abs(eta1) < 1.4 || abs(eta1) > 1.6) && (abs(eta2) < 1.4 || abs(eta2) > 1.6)) && p4.M() > 20 && deltaR > 0.3 && !(runNr == 195649 && lumiSec == 49 && eventNr == 75858433) && !(runNr == 195749 && lumiSec == 108 && eventNr == 216906941)) && runNr < 99999999)*(id1 < 0.05 && id2 < 0.05)*(p4.M()> 20 && p4.M() < 70)'
p128
sg9
L492L
ssg13
(dp129
g5
L358L
sg6
L316L
sg7
S'weight*(((nJets >= 2 && met > 150) || (nJets >= 3 && met > 100)) && abs(eta1) < 1.4 && abs(eta2) < 1.4 && ( chargeProduct < 0 && pt1 > 20 && pt2 > 20 && abs(eta1)<2.4  && abs(eta2) < 2.4 && ((abs(eta1) < 1.4 || abs(eta1) > 1.6) && (abs(eta2) < 1.4 || abs(eta2) > 1.6)) && p4.M() > 20 && deltaR > 0.3 && !(runNr == 195649 && lumiSec == 49 && eventNr == 75858433) && !(runNr == 195749 && lumiSec == 108 && eventNr == 216906941)) && runNr < 99999999)*(id1 < 0.05 && id2 < 0.05)*(p4.M() > 120)'
p130
sg9
L609L
ssg16
(dp131
g5
L1044L
sg6
L926L
sg7
S'weight*(((nJets >= 2 && met > 150) || (nJets >= 3 && met > 100)) && abs(eta1) < 1.4 && abs(eta2) < 1.4 && ( chargeProduct < 0 && pt1 > 20 && pt2 > 20 && abs(eta1)<2.4  && abs(eta2) < 2.4 && ((abs(eta1) < 1.4 || abs(eta1) > 1.6) && (abs(eta2) < 1.4 || abs(eta2) > 1.6)) && p4.M() > 20 && deltaR > 0.3 && !(runNr == 195649 && lumiSec == 49 && eventNr == 75858433) && !(runNr == 195749 && lumiSec == 108 && eventNr == 216906941)) && runNr < 99999999)*(id1 < 0.05 && id2 < 0.05)*(p4.M() > 20)'
p132
sg9
L1680L
sssS'noBTags'
p133
(dp134
g3
(dp135
g5
L88L
sg6
L97L
sg7
S'weight*(((nJets >= 2 && met > 150) || (nJets >= 3 && met > 100)) && abs(eta1) < 1.4 && abs(eta2) < 1.4 && ( chargeProduct < 0 && pt1 > 20 && pt2 > 20 && abs(eta1)<2.4  && abs(eta2) < 2.4 && ((abs(eta1) < 1.4 || abs(eta1) > 1.6) && (abs(eta2) < 1.4 || abs(eta2) > 1.6)) && p4.M() > 20 && deltaR > 0.3 && !(runNr == 195649 && lumiSec == 49 && eventNr == 75858433) && !(runNr == 195749 && lumiSec == 108 && eventNr == 216906941)) && runNr < 99999999)*(nBJets == 0)*(p4.M()> 81 && p4.M() < 101)'
p136
sg9
L82L
ssg10
(dp137
g5
L108L
sg6
L94L
sg7
S'weight*(((nJets >= 2 && met > 150) || (nJets >= 3 && met > 100)) && abs(eta1) < 1.4 && abs(eta2) < 1.4 && ( chargeProduct < 0 && pt1 > 20 && pt2 > 20 && abs(eta1)<2.4  && abs(eta2) < 2.4 && ((abs(eta1) < 1.4 || abs(eta1) > 1.6) && (abs(eta2) < 1.4 || abs(eta2) > 1.6)) && p4.M() > 20 && deltaR > 0.3 && !(runNr == 195649 && lumiSec == 49 && eventNr == 75858433) && !(runNr == 195749 && lumiSec == 108 && eventNr == 216906941)) && runNr < 99999999)*(nBJets == 0)*(p4.M()> 20 && p4.M() < 70)'
p138
sg9
L188L
ssg13
(dp139
g5
L100L
sg6
L88L
sg7
S'weight*(((nJets >= 2 && met > 150) || (nJets >= 3 && met > 100)) && abs(eta1) < 1.4 && abs(eta2) < 1.4 && ( chargeProduct < 0 && pt1 > 20 && pt2 > 20 && abs(eta1)<2.4  && abs(eta2) < 2.4 && ((abs(eta1) < 1.4 || abs(eta1) > 1.6) && (abs(eta2) < 1.4 || abs(eta2) > 1.6)) && p4.M() > 20 && deltaR > 0.3 && !(runNr == 195649 && lumiSec == 49 && eventNr == 75858433) && !(runNr == 195749 && lumiSec == 108 && eventNr == 216906941)) && runNr < 99999999)*(nBJets == 0)*(p4.M() > 120)'
p140
sg9
L169L
ssg16
(dp141
g5
L352L
sg6
L334L
sg7
S'weight*(((nJets >= 2 && met > 150) || (nJets >= 3 && met > 100)) && abs(eta1) < 1.4 && abs(eta2) < 1.4 && ( chargeProduct < 0 && pt1 > 20 && pt2 > 20 && abs(eta1)<2.4  && abs(eta2) < 2.4 && ((abs(eta1) < 1.4 || abs(eta1) > 1.6) && (abs(eta2) < 1.4 || abs(eta2) > 1.6)) && p4.M() > 20 && deltaR > 0.3 && !(runNr == 195649 && lumiSec == 49 && eventNr == 75858433) && !(runNr == 195749 && lumiSec == 108 && eventNr == 216906941)) && runNr < 99999999)*(nBJets == 0)*(p4.M() > 20)'
p142
sg9
L521L
sssS'caloMet'
p143
(dp144
g3
(dp145
g5
L497L
sg6
L222L
sg7
S'weight*(((nJets >= 2 && caloMet > 150) || (nJets >= 3 && caloMet > 100)) && abs(eta1) < 1.4 && abs(eta2) < 1.4 && ( chargeProduct < 0 && pt1 > 20 && pt2 > 20 && abs(eta1)<2.4  && abs(eta2) < 2.4 && ((abs(eta1) < 1.4 || abs(eta1) > 1.6) && (abs(eta2) < 1.4 || abs(eta2) > 1.6)) && p4.M() > 20 && deltaR > 0.3 && !(runNr == 195649 && lumiSec == 49 && eventNr == 75858433) && !(runNr == 195749 && lumiSec == 108 && eventNr == 216906941)) && runNr < 99999999)*(p4.M()> 81 && p4.M() < 101)'
p146
sg9
L344L
ssg10
(dp147
g5
L495L
sg6
L361L
sg7
S'weight*(((nJets >= 2 && caloMet > 150) || (nJets >= 3 && caloMet > 100)) && abs(eta1) < 1.4 && abs(eta2) < 1.4 && ( chargeProduct < 0 && pt1 > 20 && pt2 > 20 && abs(eta1)<2.4  && abs(eta2) < 2.4 && ((abs(eta1) < 1.4 || abs(eta1) > 1.6) && (abs(eta2) < 1.4 || abs(eta2) > 1.6)) && p4.M() > 20 && deltaR > 0.3 && !(runNr == 195649 && lumiSec == 49 && eventNr == 75858433) && !(runNr == 195749 && lumiSec == 108 && eventNr == 216906941)) && runNr < 99999999)*(p4.M()> 20 && p4.M() < 70)'
p148
sg9
L702L
ssg13
(dp149
g5
L531L
sg6
L397L
sg7
S'weight*(((nJets >= 2 && caloMet > 150) || (nJets >= 3 && caloMet > 100)) && abs(eta1) < 1.4 && abs(eta2) < 1.4 && ( chargeProduct < 0 && pt1 > 20 && pt2 > 20 && abs(eta1)<2.4  && abs(eta2) < 2.4 && ((abs(eta1) < 1.4 || abs(eta1) > 1.6) && (abs(eta2) < 1.4 || abs(eta2) > 1.6)) && p4.M() > 20 && deltaR > 0.3 && !(runNr == 195649 && lumiSec == 49 && eventNr == 75858433) && !(runNr == 195749 && lumiSec == 108 && eventNr == 216906941)) && runNr < 99999999)*(p4.M() > 120)'
p150
sg9
L807L
ssg16
(dp151
g5
L1854L
sg6
L1216L
sg7
S'weight*(((nJets >= 2 && caloMet > 150) || (nJets >= 3 && caloMet > 100)) && abs(eta1) < 1.4 && abs(eta2) < 1.4 && ( chargeProduct < 0 && pt1 > 20 && pt2 > 20 && abs(eta1)<2.4  && abs(eta2) < 2.4 && ((abs(eta1) < 1.4 || abs(eta1) > 1.6) && (abs(eta2) < 1.4 || abs(eta2) > 1.6)) && p4.M() > 20 && deltaR > 0.3 && !(runNr == 195649 && lumiSec == 49 && eventNr == 75858433) && !(runNr == 195749 && lumiSec == 108 && eventNr == 216906941)) && runNr < 99999999)*(p4.M() > 20)'
p152
sg9
L2314L
sssS'type1Met'
p153
(dp154
g3
(dp155
g5
L308L
sg6
L267L
sg7
S'weight*(((nJets >= 2 && type1Met > 150) || (nJets >= 3 && type1Met > 100)) && abs(eta1) < 1.4 && abs(eta2) < 1.4 && ( chargeProduct < 0 && pt1 > 20 && pt2 > 20 && abs(eta1)<2.4  && abs(eta2) < 2.4 && ((abs(eta1) < 1.4 || abs(eta1) > 1.6) && (abs(eta2) < 1.4 || abs(eta2) > 1.6)) && p4.M() > 20 && deltaR > 0.3 && !(runNr == 195649 && lumiSec == 49 && eventNr == 75858433) && !(runNr == 195749 && lumiSec == 108 && eventNr == 216906941)) && runNr < 99999999)*(p4.M()> 81 && p4.M() < 101)'
p156
sg9
L438L
ssg10
(dp157
g5
L578L
sg6
L464L
sg7
S'weight*(((nJets >= 2 && type1Met > 150) || (nJets >= 3 && type1Met > 100)) && abs(eta1) < 1.4 && abs(eta2) < 1.4 && ( chargeProduct < 0 && pt1 > 20 && pt2 > 20 && abs(eta1)<2.4  && abs(eta2) < 2.4 && ((abs(eta1) < 1.4 || abs(eta1) > 1.6) && (abs(eta2) < 1.4 || abs(eta2) > 1.6)) && p4.M() > 20 && deltaR > 0.3 && !(runNr == 195649 && lumiSec == 49 && eventNr == 75858433) && !(runNr == 195749 && lumiSec == 108 && eventNr == 216906941)) && runNr < 99999999)*(p4.M()> 20 && p4.M() < 70)'
p158
sg9
L926L
ssg13
(dp159
g5
L517L
sg6
L480L
sg7
S'weight*(((nJets >= 2 && type1Met > 150) || (nJets >= 3 && type1Met > 100)) && abs(eta1) < 1.4 && abs(eta2) < 1.4 && ( chargeProduct < 0 && pt1 > 20 && pt2 > 20 && abs(eta1)<2.4  && abs(eta2) < 2.4 && ((abs(eta1) < 1.4 || abs(eta1) > 1.6) && (abs(eta2) < 1.4 || abs(eta2) > 1.6)) && p4.M() > 20 && deltaR > 0.3 && !(runNr == 195649 && lumiSec == 49 && eventNr == 75858433) && !(runNr == 195749 && lumiSec == 108 && eventNr == 216906941)) && runNr < 99999999)*(p4.M() > 120)'
p160
sg9
L891L
ssg16
(dp161
g5
L1749L
sg6
L1516L
sg7
S'weight*(((nJets >= 2 && type1Met > 150) || (nJets >= 3 && type1Met > 100)) && abs(eta1) < 1.4 && abs(eta2) < 1.4 && ( chargeProduct < 0 && pt1 > 20 && pt2 > 20 && abs(eta1)<2.4  && abs(eta2) < 2.4 && ((abs(eta1) < 1.4 || abs(eta1) > 1.6) && (abs(eta2) < 1.4 || abs(eta2) > 1.6)) && p4.M() > 20 && deltaR > 0.3 && !(runNr == 195649 && lumiSec == 49 && eventNr == 75858433) && !(runNr == 195749 && lumiSec == 108 && eventNr == 216906941)) && runNr < 99999999)*(p4.M() > 20)'
p162
sg9
L2817L
sssS'mht'
p163
(dp164
g3
(dp165
g5
L659L
sg6
L547L
sg7
S'weight*(((nJets >= 2 && mht > 150) || (nJets >= 3 && mht > 100)) && abs(eta1) < 1.4 && abs(eta2) < 1.4 && ( chargeProduct < 0 && pt1 > 20 && pt2 > 20 && abs(eta1)<2.4  && abs(eta2) < 2.4 && ((abs(eta1) < 1.4 || abs(eta1) > 1.6) && (abs(eta2) < 1.4 || abs(eta2) > 1.6)) && p4.M() > 20 && deltaR > 0.3 && !(runNr == 195649 && lumiSec == 49 && eventNr == 75858433) && !(runNr == 195749 && lumiSec == 108 && eventNr == 216906941)) && runNr < 99999999)*(p4.M()> 81 && p4.M() < 101)'
p166
sg9
L485L
ssg10
(dp167
g5
L654L
sg6
L525L
sg7
S'weight*(((nJets >= 2 && mht > 150) || (nJets >= 3 && mht > 100)) && abs(eta1) < 1.4 && abs(eta2) < 1.4 && ( chargeProduct < 0 && pt1 > 20 && pt2 > 20 && abs(eta1)<2.4  && abs(eta2) < 2.4 && ((abs(eta1) < 1.4 || abs(eta1) > 1.6) && (abs(eta2) < 1.4 || abs(eta2) > 1.6)) && p4.M() > 20 && deltaR > 0.3 && !(runNr == 195649 && lumiSec == 49 && eventNr == 75858433) && !(runNr == 195749 && lumiSec == 108 && eventNr == 216906941)) && runNr < 99999999)*(p4.M()> 20 && p4.M() < 70)'
p168
sg9
L948L
ssg13
(dp169
g5
L602L
sg6
L567L
sg7
S'weight*(((nJets >= 2 && mht > 150) || (nJets >= 3 && mht > 100)) && abs(eta1) < 1.4 && abs(eta2) < 1.4 && ( chargeProduct < 0 && pt1 > 20 && pt2 > 20 && abs(eta1)<2.4  && abs(eta2) < 2.4 && ((abs(eta1) < 1.4 || abs(eta1) > 1.6) && (abs(eta2) < 1.4 || abs(eta2) > 1.6)) && p4.M() > 20 && deltaR > 0.3 && !(runNr == 195649 && lumiSec == 49 && eventNr == 75858433) && !(runNr == 195749 && lumiSec == 108 && eventNr == 216906941)) && runNr < 99999999)*(p4.M() > 120)'
p170
sg9
L1044L
ssg16
(dp171
g5
L2307L
sg6
L1965L
sg7
S'weight*(((nJets >= 2 && mht > 150) || (nJets >= 3 && mht > 100)) && abs(eta1) < 1.4 && abs(eta2) < 1.4 && ( chargeProduct < 0 && pt1 > 20 && pt2 > 20 && abs(eta1)<2.4  && abs(eta2) < 2.4 && ((abs(eta1) < 1.4 || abs(eta1) > 1.6) && (abs(eta2) < 1.4 || abs(eta2) > 1.6)) && p4.M() > 20 && deltaR > 0.3 && !(runNr == 195649 && lumiSec == 49 && eventNr == 75858433) && !(runNr == 195749 && lumiSec == 108 && eventNr == 216906941)) && runNr < 99999999)*(p4.M() > 20)'
p172
sg9
L3091L
sssS'pt2010'
p173
(dp174
g3
(dp175
g5
L450L
sg6
L408L
sg7
S'weight*(((nJets >= 2 && met > 150) || (nJets >= 3 && met > 100)) && abs(eta1) < 1.4 && abs(eta2) < 1.4 && ( chargeProduct < 0 && pt1 > 20 && pt2 > 20 && abs(eta1)<2.4  && abs(eta2) < 2.4 && ((abs(eta1) < 1.4 || abs(eta1) > 1.6) && (abs(eta2) < 1.4 || abs(eta2) > 1.6)) && p4.M() > 20 && deltaR > 0.3 && !(runNr == 195649 && lumiSec == 49 && eventNr == 75858433) && !(runNr == 195749 && lumiSec == 108 && eventNr == 216906941)) && runNr < 99999999)*(((pt1 > 20 && pt2 > 10)||(pt1 > 10 && pt2 > 20)))*(p4.M() > 120)'
p176
sg9
L785L
ssg10
(dp177
g5
L450L
sg6
L408L
sg7
g176
sg9
L785L
ssg13
(dp178
g5
L450L
sg6
L408L
sg7
g176
sg9
L785L
ssg16
(dp179
g5
L450L
sg6
L408L
sg7
g176
sg9
L785L
sssS'pt3030'
p180
(dp181
g3
(dp182
g5
L415L
sg6
L377L
sg7
S'weight*(((nJets >= 2 && met > 150) || (nJets >= 3 && met > 100)) && abs(eta1) < 1.4 && abs(eta2) < 1.4 && ( chargeProduct < 0 && pt1 > 20 && pt2 > 20 && abs(eta1)<2.4  && abs(eta2) < 2.4 && ((abs(eta1) < 1.4 || abs(eta1) > 1.6) && (abs(eta2) < 1.4 || abs(eta2) > 1.6)) && p4.M() > 20 && deltaR > 0.3 && !(runNr == 195649 && lumiSec == 49 && eventNr == 75858433) && !(runNr == 195749 && lumiSec == 108 && eventNr == 216906941)) && runNr < 99999999)*(pt1 > 30 && pt2 > 30)*(p4.M() > 120)'
p183
sg9
L710L
ssg10
(dp184
g5
L415L
sg6
L377L
sg7
g183
sg9
L710L
ssg13
(dp185
g5
L415L
sg6
L377L
sg7
g183
sg9
L710L
ssg16
(dp186
g5
L415L
sg6
L377L
sg7
g183
sg9
L710L
sssS'midPU'
p187
(dp188
g3
(dp189
g5
L89L
sg6
L83L
sg7
S'weight*(((nJets >= 2 && met > 150) || (nJets >= 3 && met > 100)) && abs(eta1) < 1.4 && abs(eta2) < 1.4 && ( chargeProduct < 0 && pt1 > 20 && pt2 > 20 && abs(eta1)<2.4  && abs(eta2) < 2.4 && ((abs(eta1) < 1.4 || abs(eta1) > 1.6) && (abs(eta2) < 1.4 || abs(eta2) > 1.6)) && p4.M() > 20 && deltaR > 0.3 && !(runNr == 195649 && lumiSec == 49 && eventNr == 75858433) && !(runNr == 195749 && lumiSec == 108 && eventNr == 216906941)) && runNr < 99999999)*(nVertices >= 11 && nVertices < 16)*(p4.M()> 81 && p4.M() < 101)'
p190
sg9
L149L
ssg10
(dp191
g5
L175L
sg6
L147L
sg7
S'weight*(((nJets >= 2 && met > 150) || (nJets >= 3 && met > 100)) && abs(eta1) < 1.4 && abs(eta2) < 1.4 && ( chargeProduct < 0 && pt1 > 20 && pt2 > 20 && abs(eta1)<2.4  && abs(eta2) < 2.4 && ((abs(eta1) < 1.4 || abs(eta1) > 1.6) && (abs(eta2) < 1.4 || abs(eta2) > 1.6)) && p4.M() > 20 && deltaR > 0.3 && !(runNr == 195649 && lumiSec == 49 && eventNr == 75858433) && !(runNr == 195749 && lumiSec == 108 && eventNr == 216906941)) && runNr < 99999999)*(nVertices >= 11 && nVertices < 16)*(p4.M()> 20 && p4.M() < 70)'
p192
sg9
L265L
ssg13
(dp193
g5
L153L
sg6
L146L
sg7
S'weight*(((nJets >= 2 && met > 150) || (nJets >= 3 && met > 100)) && abs(eta1) < 1.4 && abs(eta2) < 1.4 && ( chargeProduct < 0 && pt1 > 20 && pt2 > 20 && abs(eta1)<2.4  && abs(eta2) < 2.4 && ((abs(eta1) < 1.4 || abs(eta1) > 1.6) && (abs(eta2) < 1.4 || abs(eta2) > 1.6)) && p4.M() > 20 && deltaR > 0.3 && !(runNr == 195649 && lumiSec == 49 && eventNr == 75858433) && !(runNr == 195749 && lumiSec == 108 && eventNr == 216906941)) && runNr < 99999999)*(nVertices >= 11 && nVertices < 16)*(p4.M() > 120)'
p194
sg9
L275L
ssg16
(dp195
g5
L521L
sg6
L461L
sg7
S'weight*(((nJets >= 2 && met > 150) || (nJets >= 3 && met > 100)) && abs(eta1) < 1.4 && abs(eta2) < 1.4 && ( chargeProduct < 0 && pt1 > 20 && pt2 > 20 && abs(eta1)<2.4  && abs(eta2) < 2.4 && ((abs(eta1) < 1.4 || abs(eta1) > 1.6) && (abs(eta2) < 1.4 || abs(eta2) > 1.6)) && p4.M() > 20 && deltaR > 0.3 && !(runNr == 195649 && lumiSec == 49 && eventNr == 75858433) && !(runNr == 195749 && lumiSec == 108 && eventNr == 216906941)) && runNr < 99999999)*(nVertices >= 11 && nVertices < 16)*(p4.M() > 20)'
p196
sg9
L859L
sss.