(dp0
S'OneBTags'
p1
(dp2
S'zMass'
p3
(dp4
S'MM'
p5
L156L
sS'EE'
p6
L113L
sS'cut'
p7
S'weight*(((nJets >= 2 && met > 150) || (nJets>=3 && met > 100)) && ( chargeProduct < 0 && pt1 > 20 && pt2 > 20 && abs(eta1)<2.4  && abs(eta2) < 2.4 && ((abs(eta1) < 1.4 || abs(eta1) > 1.6) && (abs(eta2) < 1.4 || abs(eta2) > 1.6)) && p4.M() > 20 && deltaR > 0.3) && runNr < 99999999)*(nBJets == 1)*(p4.M()> 81 && p4.M() < 101)'
p8
sS'EM'
p9
L241L
ssS'edgeMass'
p10
(dp11
g5
L240L
sg6
L201L
sg7
S'weight*(((nJets >= 2 && met > 150) || (nJets>=3 && met > 100)) && ( chargeProduct < 0 && pt1 > 20 && pt2 > 20 && abs(eta1)<2.4  && abs(eta2) < 2.4 && ((abs(eta1) < 1.4 || abs(eta1) > 1.6) && (abs(eta2) < 1.4 || abs(eta2) > 1.6)) && p4.M() > 20 && deltaR > 0.3) && runNr < 99999999)*(nBJets == 1)*(p4.M()> 20 && p4.M() < 70)'
p12
sg9
L370L
ssS'highMass'
p13
(dp14
g5
L289L
sg6
L278L
sg7
S'weight*(((nJets >= 2 && met > 150) || (nJets>=3 && met > 100)) && ( chargeProduct < 0 && pt1 > 20 && pt2 > 20 && abs(eta1)<2.4  && abs(eta2) < 2.4 && ((abs(eta1) < 1.4 || abs(eta1) > 1.6) && (abs(eta2) < 1.4 || abs(eta2) > 1.6)) && p4.M() > 20 && deltaR > 0.3) && runNr < 99999999)*(nBJets == 1)*(p4.M() > 120)'
p15
sg9
L548L
ssS'fullMassRange'
p16
(dp17
g5
L855L
sg6
L756L
sg7
S'weight*(((nJets >= 2 && met > 150) || (nJets>=3 && met > 100)) && ( chargeProduct < 0 && pt1 > 20 && pt2 > 20 && abs(eta1)<2.4  && abs(eta2) < 2.4 && ((abs(eta1) < 1.4 || abs(eta1) > 1.6) && (abs(eta2) < 1.4 || abs(eta2) > 1.6)) && p4.M() > 20 && deltaR > 0.3) && runNr < 99999999)*(nBJets == 1)*(p4.M() > 20)'
p18
sg9
L1461L
sssS'ht100to300'
p19
(dp20
g3
(dp21
g5
L170L
sg6
L138L
sg7
S'weight*(((nJets >= 2 && met > 150) || (nJets>=3 && met > 100)) && ( chargeProduct < 0 && pt1 > 20 && pt2 > 20 && abs(eta1)<2.4  && abs(eta2) < 2.4 && ((abs(eta1) < 1.4 || abs(eta1) > 1.6) && (abs(eta2) < 1.4 || abs(eta2) > 1.6)) && p4.M() > 20 && deltaR > 0.3) && runNr < 99999999)*(ht > 100 && ht < 300)*(p4.M()> 81 && p4.M() < 101)'
p22
sg9
L286L
ssg10
(dp23
g5
L303L
sg6
L235L
sg7
S'weight*(((nJets >= 2 && met > 150) || (nJets>=3 && met > 100)) && ( chargeProduct < 0 && pt1 > 20 && pt2 > 20 && abs(eta1)<2.4  && abs(eta2) < 2.4 && ((abs(eta1) < 1.4 || abs(eta1) > 1.6) && (abs(eta2) < 1.4 || abs(eta2) > 1.6)) && p4.M() > 20 && deltaR > 0.3) && runNr < 99999999)*(ht > 100 && ht < 300)*(p4.M()> 20 && p4.M() < 70)'
p24
sg9
L469L
ssg13
(dp25
g5
L312L
sg6
L302L
sg7
S'weight*(((nJets >= 2 && met > 150) || (nJets>=3 && met > 100)) && ( chargeProduct < 0 && pt1 > 20 && pt2 > 20 && abs(eta1)<2.4  && abs(eta2) < 2.4 && ((abs(eta1) < 1.4 || abs(eta1) > 1.6) && (abs(eta2) < 1.4 || abs(eta2) > 1.6)) && p4.M() > 20 && deltaR > 0.3) && runNr < 99999999)*(ht > 100 && ht < 300)*(p4.M() > 120)'
p26
sg9
L622L
ssg16
(dp27
g5
L1001L
sg6
L852L
sg7
S'weight*(((nJets >= 2 && met > 150) || (nJets>=3 && met > 100)) && ( chargeProduct < 0 && pt1 > 20 && pt2 > 20 && abs(eta1)<2.4  && abs(eta2) < 2.4 && ((abs(eta1) < 1.4 || abs(eta1) > 1.6) && (abs(eta2) < 1.4 || abs(eta2) > 1.6)) && p4.M() > 20 && deltaR > 0.3) && runNr < 99999999)*(ht > 100 && ht < 300)*(p4.M() > 20)'
p28
sg9
L1718L
sssS'geOneBTags'
p29
(dp30
g3
(dp31
g5
L236L
sg6
L187L
sg7
S'weight*(((nJets >= 2 && met > 150) || (nJets>=3 && met > 100)) && ( chargeProduct < 0 && pt1 > 20 && pt2 > 20 && abs(eta1)<2.4  && abs(eta2) < 2.4 && ((abs(eta1) < 1.4 || abs(eta1) > 1.6) && (abs(eta2) < 1.4 || abs(eta2) > 1.6)) && p4.M() > 20 && deltaR > 0.3) && runNr < 99999999)*(nBJets >= 1)*(p4.M()> 81 && p4.M() < 101)'
p32
sg9
L383L
ssg10
(dp33
g5
L434L
sg6
L334L
sg7
S'weight*(((nJets >= 2 && met > 150) || (nJets>=3 && met > 100)) && ( chargeProduct < 0 && pt1 > 20 && pt2 > 20 && abs(eta1)<2.4  && abs(eta2) < 2.4 && ((abs(eta1) < 1.4 || abs(eta1) > 1.6) && (abs(eta2) < 1.4 || abs(eta2) > 1.6)) && p4.M() > 20 && deltaR > 0.3) && runNr < 99999999)*(nBJets >= 1)*(p4.M()> 20 && p4.M() < 70)'
p34
sg9
L639L
ssg13
(dp35
g5
L495L
sg6
L472L
sg7
S'weight*(((nJets >= 2 && met > 150) || (nJets>=3 && met > 100)) && ( chargeProduct < 0 && pt1 > 20 && pt2 > 20 && abs(eta1)<2.4  && abs(eta2) < 2.4 && ((abs(eta1) < 1.4 || abs(eta1) > 1.6) && (abs(eta2) < 1.4 || abs(eta2) > 1.6)) && p4.M() > 20 && deltaR > 0.3) && runNr < 99999999)*(nBJets >= 1)*(p4.M() > 120)'
p36
sg9
L902L
ssg16
(dp37
g5
L1461L
sg6
L1239L
sg7
S'weight*(((nJets >= 2 && met > 150) || (nJets>=3 && met > 100)) && ( chargeProduct < 0 && pt1 > 20 && pt2 > 20 && abs(eta1)<2.4  && abs(eta2) < 2.4 && ((abs(eta1) < 1.4 || abs(eta1) > 1.6) && (abs(eta2) < 1.4 || abs(eta2) > 1.6)) && p4.M() > 20 && deltaR > 0.3) && runNr < 99999999)*(nBJets >= 1)*(p4.M() > 20)'
p38
sg9
L2434L
sssS'lowPU'
p39
(dp40
g3
(dp41
g5
L140L
sg6
L120L
sg7
S'weight*(((nJets >= 2 && met > 150) || (nJets>=3 && met > 100)) && ( chargeProduct < 0 && pt1 > 20 && pt2 > 20 && abs(eta1)<2.4  && abs(eta2) < 2.4 && ((abs(eta1) < 1.4 || abs(eta1) > 1.6) && (abs(eta2) < 1.4 || abs(eta2) > 1.6)) && p4.M() > 20 && deltaR > 0.3) && runNr < 99999999)*(nVertices < 13)*(p4.M()> 81 && p4.M() < 101)'
p42
sg9
L187L
ssg10
(dp43
g5
L203L
sg6
L177L
sg7
S'weight*(((nJets >= 2 && met > 150) || (nJets>=3 && met > 100)) && ( chargeProduct < 0 && pt1 > 20 && pt2 > 20 && abs(eta1)<2.4  && abs(eta2) < 2.4 && ((abs(eta1) < 1.4 || abs(eta1) > 1.6) && (abs(eta2) < 1.4 || abs(eta2) > 1.6)) && p4.M() > 20 && deltaR > 0.3) && runNr < 99999999)*(nVertices < 13)*(p4.M()> 20 && p4.M() < 70)'
p44
sg9
L337L
ssg13
(dp45
g5
L225L
sg6
L242L
sg7
S'weight*(((nJets >= 2 && met > 150) || (nJets>=3 && met > 100)) && ( chargeProduct < 0 && pt1 > 20 && pt2 > 20 && abs(eta1)<2.4  && abs(eta2) < 2.4 && ((abs(eta1) < 1.4 || abs(eta1) > 1.6) && (abs(eta2) < 1.4 || abs(eta2) > 1.6)) && p4.M() > 20 && deltaR > 0.3) && runNr < 99999999)*(nVertices < 13)*(p4.M() > 120)'
p46
sg9
L438L
ssg16
(dp47
g5
L714L
sg6
L669L
sg7
S'weight*(((nJets >= 2 && met > 150) || (nJets>=3 && met > 100)) && ( chargeProduct < 0 && pt1 > 20 && pt2 > 20 && abs(eta1)<2.4  && abs(eta2) < 2.4 && ((abs(eta1) < 1.4 || abs(eta1) > 1.6) && (abs(eta2) < 1.4 || abs(eta2) > 1.6)) && p4.M() > 20 && deltaR > 0.3) && runNr < 99999999)*(nVertices < 13)*(p4.M() > 20)'
p48
sg9
L1193L
sssS'default'
p49
(dp50
g3
(dp51
g5
L352L
sg6
L318L
sg7
S'weight*(((nJets >= 2 && met > 150) || (nJets>=3 && met > 100)) && ( chargeProduct < 0 && pt1 > 20 && pt2 > 20 && abs(eta1)<2.4  && abs(eta2) < 2.4 && ((abs(eta1) < 1.4 || abs(eta1) > 1.6) && (abs(eta2) < 1.4 || abs(eta2) > 1.6)) && p4.M() > 20 && deltaR > 0.3) && runNr < 99999999)*(p4.M()> 81 && p4.M() < 101)'
p52
sg9
L495L
ssg10
(dp53
g5
L577L
sg6
L442L
sg7
S'weight*(((nJets >= 2 && met > 150) || (nJets>=3 && met > 100)) && ( chargeProduct < 0 && pt1 > 20 && pt2 > 20 && abs(eta1)<2.4  && abs(eta2) < 2.4 && ((abs(eta1) < 1.4 || abs(eta1) > 1.6) && (abs(eta2) < 1.4 || abs(eta2) > 1.6)) && p4.M() > 20 && deltaR > 0.3) && runNr < 99999999)*(p4.M()> 20 && p4.M() < 70)'
p54
sg9
L875L
ssg13
(dp55
g5
L634L
sg6
L596L
sg7
S'weight*(((nJets >= 2 && met > 150) || (nJets>=3 && met > 100)) && ( chargeProduct < 0 && pt1 > 20 && pt2 > 20 && abs(eta1)<2.4  && abs(eta2) < 2.4 && ((abs(eta1) < 1.4 || abs(eta1) > 1.6) && (abs(eta2) < 1.4 || abs(eta2) > 1.6)) && p4.M() > 20 && deltaR > 0.3) && runNr < 99999999)*(p4.M() > 120)'
p56
sg9
L1172L
ssg16
(dp57
g5
L1939L
sg6
L1679L
sg7
S'weight*(((nJets >= 2 && met > 150) || (nJets>=3 && met > 100)) && ( chargeProduct < 0 && pt1 > 20 && pt2 > 20 && abs(eta1)<2.4  && abs(eta2) < 2.4 && ((abs(eta1) < 1.4 || abs(eta1) > 1.6) && (abs(eta2) < 1.4 || abs(eta2) > 1.6)) && p4.M() > 20 && deltaR > 0.3) && runNr < 99999999)*(p4.M() > 20)'
p58
sg9
L3185L
sssS'pt3020'
p59
(dp60
g3
(dp61
g5
L350L
sg6
L316L
sg7
S'weight*(((nJets >= 2 && met > 150) || (nJets>=3 && met > 100)) && ( chargeProduct < 0 &&  abs(eta1)<2.4  && abs(eta2) < 2.4 && ((abs(eta1) < 1.4 || abs(eta1) > 1.6) && (abs(eta2) < 1.4 || abs(eta2) > 1.6)) && p4.M() > 20 && deltaR > 0.3) && runNr < 99999999)*(((pt1 > 30 && pt2 > 20)||(pt1 > 20 && pt2 > 30)))*(p4.M()> 81 && p4.M() < 101)'
p62
sg9
L487L
ssg10
(dp63
g5
L505L
sg6
L388L
sg7
S'weight*(((nJets >= 2 && met > 150) || (nJets>=3 && met > 100)) && ( chargeProduct < 0 &&  abs(eta1)<2.4  && abs(eta2) < 2.4 && ((abs(eta1) < 1.4 || abs(eta1) > 1.6) && (abs(eta2) < 1.4 || abs(eta2) > 1.6)) && p4.M() > 20 && deltaR > 0.3) && runNr < 99999999)*(((pt1 > 30 && pt2 > 20)||(pt1 > 20 && pt2 > 30)))*(p4.M()> 20 && p4.M() < 70)'
p64
sg9
L777L
ssg13
(dp65
g5
L631L
sg6
L592L
sg7
S'weight*(((nJets >= 2 && met > 150) || (nJets>=3 && met > 100)) && ( chargeProduct < 0 &&  abs(eta1)<2.4  && abs(eta2) < 2.4 && ((abs(eta1) < 1.4 || abs(eta1) > 1.6) && (abs(eta2) < 1.4 || abs(eta2) > 1.6)) && p4.M() > 20 && deltaR > 0.3) && runNr < 99999999)*(((pt1 > 30 && pt2 > 20)||(pt1 > 20 && pt2 > 30)))*(p4.M() > 120)'
p66
sg9
L1168L
ssg16
(dp67
g5
L1858L
sg6
L1615L
sg7
S'weight*(((nJets >= 2 && met > 150) || (nJets>=3 && met > 100)) && ( chargeProduct < 0 &&  abs(eta1)<2.4  && abs(eta2) < 2.4 && ((abs(eta1) < 1.4 || abs(eta1) > 1.6) && (abs(eta2) < 1.4 || abs(eta2) > 1.6)) && p4.M() > 20 && deltaR > 0.3) && runNr < 99999999)*(((pt1 > 30 && pt2 > 20)||(pt1 > 20 && pt2 > 30)))*(p4.M() > 20)'
p68
sg9
L3064L
sssS'ht300'
p69
(dp70
g3
(dp71
g5
L181L
sg6
L177L
sg7
S'weight*(((nJets >= 2 && met > 150) || (nJets>=3 && met > 100)) && ( chargeProduct < 0 && pt1 > 20 && pt2 > 20 && abs(eta1)<2.4  && abs(eta2) < 2.4 && ((abs(eta1) < 1.4 || abs(eta1) > 1.6) && (abs(eta2) < 1.4 || abs(eta2) > 1.6)) && p4.M() > 20 && deltaR > 0.3) && runNr < 99999999)*(ht > 300)*(p4.M()> 81 && p4.M() < 101)'
p72
sg9
L208L
ssg10
(dp73
g5
L274L
sg6
L207L
sg7
S'weight*(((nJets >= 2 && met > 150) || (nJets>=3 && met > 100)) && ( chargeProduct < 0 && pt1 > 20 && pt2 > 20 && abs(eta1)<2.4  && abs(eta2) < 2.4 && ((abs(eta1) < 1.4 || abs(eta1) > 1.6) && (abs(eta2) < 1.4 || abs(eta2) > 1.6)) && p4.M() > 20 && deltaR > 0.3) && runNr < 99999999)*(ht > 300)*(p4.M()> 20 && p4.M() < 70)'
p74
sg9
L405L
ssg13
(dp75
g5
L319L
sg6
L291L
sg7
S'weight*(((nJets >= 2 && met > 150) || (nJets>=3 && met > 100)) && ( chargeProduct < 0 && pt1 > 20 && pt2 > 20 && abs(eta1)<2.4  && abs(eta2) < 2.4 && ((abs(eta1) < 1.4 || abs(eta1) > 1.6) && (abs(eta2) < 1.4 || abs(eta2) > 1.6)) && p4.M() > 20 && deltaR > 0.3) && runNr < 99999999)*(ht > 300)*(p4.M() > 120)'
p76
sg9
L544L
ssg16
(dp77
g5
L934L
sg6
L820L
sg7
S'weight*(((nJets >= 2 && met > 150) || (nJets>=3 && met > 100)) && ( chargeProduct < 0 && pt1 > 20 && pt2 > 20 && abs(eta1)<2.4  && abs(eta2) < 2.4 && ((abs(eta1) < 1.4 || abs(eta1) > 1.6) && (abs(eta2) < 1.4 || abs(eta2) > 1.6)) && p4.M() > 20 && deltaR > 0.3) && runNr < 99999999)*(ht > 300)*(p4.M() > 20)'
p78
sg9
L1458L
sssS'highPU'
p79
(dp80
g3
(dp81
g5
L129L
sg6
L108L
sg7
S'weight*(((nJets >= 2 && met > 150) || (nJets>=3 && met > 100)) && ( chargeProduct < 0 && pt1 > 20 && pt2 > 20 && abs(eta1)<2.4  && abs(eta2) < 2.4 && ((abs(eta1) < 1.4 || abs(eta1) > 1.6) && (abs(eta2) < 1.4 || abs(eta2) > 1.6)) && p4.M() > 20 && deltaR > 0.3) && runNr < 99999999)*(nVertices >= 17)*(p4.M()> 81 && p4.M() < 101)'
p82
sg9
L153L
ssg10
(dp83
g5
L202L
sg6
L151L
sg7
S'weight*(((nJets >= 2 && met > 150) || (nJets>=3 && met > 100)) && ( chargeProduct < 0 && pt1 > 20 && pt2 > 20 && abs(eta1)<2.4  && abs(eta2) < 2.4 && ((abs(eta1) < 1.4 || abs(eta1) > 1.6) && (abs(eta2) < 1.4 || abs(eta2) > 1.6)) && p4.M() > 20 && deltaR > 0.3) && runNr < 99999999)*(nVertices >= 17)*(p4.M()> 20 && p4.M() < 70)'
p84
sg9
L290L
ssg13
(dp85
g5
L216L
sg6
L205L
sg7
S'weight*(((nJets >= 2 && met > 150) || (nJets>=3 && met > 100)) && ( chargeProduct < 0 && pt1 > 20 && pt2 > 20 && abs(eta1)<2.4  && abs(eta2) < 2.4 && ((abs(eta1) < 1.4 || abs(eta1) > 1.6) && (abs(eta2) < 1.4 || abs(eta2) > 1.6)) && p4.M() > 20 && deltaR > 0.3) && runNr < 99999999)*(nVertices >= 17)*(p4.M() > 120)'
p86
sg9
L401L
ssg16
(dp87
g5
L664L
sg6
L582L
sg7
S'weight*(((nJets >= 2 && met > 150) || (nJets>=3 && met > 100)) && ( chargeProduct < 0 && pt1 > 20 && pt2 > 20 && abs(eta1)<2.4  && abs(eta2) < 2.4 && ((abs(eta1) < 1.4 || abs(eta1) > 1.6) && (abs(eta2) < 1.4 || abs(eta2) > 1.6)) && p4.M() > 20 && deltaR > 0.3) && runNr < 99999999)*(nVertices >= 17)*(p4.M() > 20)'
p88
sg9
L1056L
sssS'tcMet'
p89
(dp90
g3
(dp91
g5
L603L
sg6
L287L
sg7
S'weight*(((nJets >= 2 && tcMet > 150) || (nJets>=3 && tcMet > 100)) && ( chargeProduct < 0 && pt1 > 20 && pt2 > 20 && abs(eta1)<2.4  && abs(eta2) < 2.4 && ((abs(eta1) < 1.4 || abs(eta1) > 1.6) && (abs(eta2) < 1.4 || abs(eta2) > 1.6)) && p4.M() > 20 && deltaR > 0.3) && runNr < 99999999)*(p4.M()> 81 && p4.M() < 101)'
p92
sg9
L449L
ssg10
(dp93
g5
L583L
sg6
L410L
sg7
S'weight*(((nJets >= 2 && tcMet > 150) || (nJets>=3 && tcMet > 100)) && ( chargeProduct < 0 && pt1 > 20 && pt2 > 20 && abs(eta1)<2.4  && abs(eta2) < 2.4 && ((abs(eta1) < 1.4 || abs(eta1) > 1.6) && (abs(eta2) < 1.4 || abs(eta2) > 1.6)) && p4.M() > 20 && deltaR > 0.3) && runNr < 99999999)*(p4.M()> 20 && p4.M() < 70)'
p94
sg9
L827L
ssg13
(dp95
g5
L724L
sg6
L580L
sg7
S'weight*(((nJets >= 2 && tcMet > 150) || (nJets>=3 && tcMet > 100)) && ( chargeProduct < 0 && pt1 > 20 && pt2 > 20 && abs(eta1)<2.4  && abs(eta2) < 2.4 && ((abs(eta1) < 1.4 || abs(eta1) > 1.6) && (abs(eta2) < 1.4 || abs(eta2) > 1.6)) && p4.M() > 20 && deltaR > 0.3) && runNr < 99999999)*(p4.M() > 120)'
p96
sg9
L1176L
ssg16
(dp97
g5
L2338L
sg6
L1579L
sg7
S'weight*(((nJets >= 2 && tcMet > 150) || (nJets>=3 && tcMet > 100)) && ( chargeProduct < 0 && pt1 > 20 && pt2 > 20 && abs(eta1)<2.4  && abs(eta2) < 2.4 && ((abs(eta1) < 1.4 || abs(eta1) > 1.6) && (abs(eta2) < 1.4 || abs(eta2) > 1.6)) && p4.M() > 20 && deltaR > 0.3) && runNr < 99999999)*(p4.M() > 20)'
p98
sg9
L3059L
sssS'geTwoBTags'
p99
(dp100
g3
(dp101
g5
L80L
sg6
L74L
sg7
S'weight*(((nJets >= 2 && met > 150) || (nJets>=3 && met > 100)) && ( chargeProduct < 0 && pt1 > 20 && pt2 > 20 && abs(eta1)<2.4  && abs(eta2) < 2.4 && ((abs(eta1) < 1.4 || abs(eta1) > 1.6) && (abs(eta2) < 1.4 || abs(eta2) > 1.6)) && p4.M() > 20 && deltaR > 0.3) && runNr < 99999999)*(nBJets >= 2)*(p4.M()> 81 && p4.M() < 101)'
p102
sg9
L142L
ssg10
(dp103
g5
L194L
sg6
L133L
sg7
S'weight*(((nJets >= 2 && met > 150) || (nJets>=3 && met > 100)) && ( chargeProduct < 0 && pt1 > 20 && pt2 > 20 && abs(eta1)<2.4  && abs(eta2) < 2.4 && ((abs(eta1) < 1.4 || abs(eta1) > 1.6) && (abs(eta2) < 1.4 || abs(eta2) > 1.6)) && p4.M() > 20 && deltaR > 0.3) && runNr < 99999999)*(nBJets >= 2)*(p4.M()> 20 && p4.M() < 70)'
p104
sg9
L269L
ssg13
(dp105
g5
L206L
sg6
L194L
sg7
S'weight*(((nJets >= 2 && met > 150) || (nJets>=3 && met > 100)) && ( chargeProduct < 0 && pt1 > 20 && pt2 > 20 && abs(eta1)<2.4  && abs(eta2) < 2.4 && ((abs(eta1) < 1.4 || abs(eta1) > 1.6) && (abs(eta2) < 1.4 || abs(eta2) > 1.6)) && p4.M() > 20 && deltaR > 0.3) && runNr < 99999999)*(nBJets >= 2)*(p4.M() > 120)'
p106
sg9
L354L
ssg16
(dp107
g5
L606L
sg6
L483L
sg7
S'weight*(((nJets >= 2 && met > 150) || (nJets>=3 && met > 100)) && ( chargeProduct < 0 && pt1 > 20 && pt2 > 20 && abs(eta1)<2.4  && abs(eta2) < 2.4 && ((abs(eta1) < 1.4 || abs(eta1) > 1.6) && (abs(eta2) < 1.4 || abs(eta2) > 1.6)) && p4.M() > 20 && deltaR > 0.3) && runNr < 99999999)*(nBJets >= 2)*(p4.M() > 20)'
p108
sg9
L973L
sssS'TwoBTags'
p109
(dp110
g3
(dp111
g5
L76L
sg6
L69L
sg7
S'weight*(((nJets >= 2 && met > 150) || (nJets>=3 && met > 100)) && ( chargeProduct < 0 && pt1 > 20 && pt2 > 20 && abs(eta1)<2.4  && abs(eta2) < 2.4 && ((abs(eta1) < 1.4 || abs(eta1) > 1.6) && (abs(eta2) < 1.4 || abs(eta2) > 1.6)) && p4.M() > 20 && deltaR > 0.3) && runNr < 99999999)*(nBJets == 2)*(p4.M()> 81 && p4.M() < 101)'
p112
sg9
L135L
ssg10
(dp113
g5
L178L
sg6
L125L
sg7
S'weight*(((nJets >= 2 && met > 150) || (nJets>=3 && met > 100)) && ( chargeProduct < 0 && pt1 > 20 && pt2 > 20 && abs(eta1)<2.4  && abs(eta2) < 2.4 && ((abs(eta1) < 1.4 || abs(eta1) > 1.6) && (abs(eta2) < 1.4 || abs(eta2) > 1.6)) && p4.M() > 20 && deltaR > 0.3) && runNr < 99999999)*(nBJets == 2)*(p4.M()> 20 && p4.M() < 70)'
p114
sg9
L253L
ssg13
(dp115
g5
L193L
sg6
L181L
sg7
S'weight*(((nJets >= 2 && met > 150) || (nJets>=3 && met > 100)) && ( chargeProduct < 0 && pt1 > 20 && pt2 > 20 && abs(eta1)<2.4  && abs(eta2) < 2.4 && ((abs(eta1) < 1.4 || abs(eta1) > 1.6) && (abs(eta2) < 1.4 || abs(eta2) > 1.6)) && p4.M() > 20 && deltaR > 0.3) && runNr < 99999999)*(nBJets == 2)*(p4.M() > 120)'
p116
sg9
L333L
ssg16
(dp117
g5
L570L
sg6
L454L
sg7
S'weight*(((nJets >= 2 && met > 150) || (nJets>=3 && met > 100)) && ( chargeProduct < 0 && pt1 > 20 && pt2 > 20 && abs(eta1)<2.4  && abs(eta2) < 2.4 && ((abs(eta1) < 1.4 || abs(eta1) > 1.6) && (abs(eta2) < 1.4 || abs(eta2) > 1.6)) && p4.M() > 20 && deltaR > 0.3) && runNr < 99999999)*(nBJets == 2)*(p4.M() > 20)'
p118
sg9
L914L
sssS'pt3010'
p119
(dp120
g3
(dp121
g5
L455L
sg6
L352L
sg7
S'weight*(((nJets >= 2 && met > 150) || (nJets>=3 && met > 100)) && ( chargeProduct < 0 &&  abs(eta1)<2.4  && abs(eta2) < 2.4 && ((abs(eta1) < 1.4 || abs(eta1) > 1.6) && (abs(eta2) < 1.4 || abs(eta2) > 1.6)) && p4.M() > 20 && deltaR > 0.3) && runNr < 99999999)*(((pt1 > 30 && pt2 > 10)||(pt1 > 10 && pt2 > 30)))*(p4.M()> 81 && p4.M() < 101)'
p122
sg9
L576L
ssg10
(dp123
g5
L951L
sg6
L597L
sg7
S'weight*(((nJets >= 2 && met > 150) || (nJets>=3 && met > 100)) && ( chargeProduct < 0 &&  abs(eta1)<2.4  && abs(eta2) < 2.4 && ((abs(eta1) < 1.4 || abs(eta1) > 1.6) && (abs(eta2) < 1.4 || abs(eta2) > 1.6)) && p4.M() > 20 && deltaR > 0.3) && runNr < 99999999)*(((pt1 > 30 && pt2 > 10)||(pt1 > 10 && pt2 > 30)))*(p4.M()> 20 && p4.M() < 70)'
p124
sg9
L1362L
ssg13
(dp125
g5
L676L
sg6
L609L
sg7
S'weight*(((nJets >= 2 && met > 150) || (nJets>=3 && met > 100)) && ( chargeProduct < 0 &&  abs(eta1)<2.4  && abs(eta2) < 2.4 && ((abs(eta1) < 1.4 || abs(eta1) > 1.6) && (abs(eta2) < 1.4 || abs(eta2) > 1.6)) && p4.M() > 20 && deltaR > 0.3) && runNr < 99999999)*(((pt1 > 30 && pt2 > 10)||(pt1 > 10 && pt2 > 30)))*(p4.M() > 120)'
p126
sg9
L1231L
ssg16
(dp127
g5
L2541L
sg6
L1930L
sg7
S'weight*(((nJets >= 2 && met > 150) || (nJets>=3 && met > 100)) && ( chargeProduct < 0 &&  abs(eta1)<2.4  && abs(eta2) < 2.4 && ((abs(eta1) < 1.4 || abs(eta1) > 1.6) && (abs(eta2) < 1.4 || abs(eta2) > 1.6)) && p4.M() > 20 && deltaR > 0.3) && runNr < 99999999)*(((pt1 > 30 && pt2 > 10)||(pt1 > 10 && pt2 > 30)))*(p4.M() > 20)'
p128
sg9
L3937L
sssS'TightIso'
p129
(dp130
g3
(dp131
g5
L268L
sg6
L218L
sg7
S'weight*(((nJets >= 2 && met > 150) || (nJets>=3 && met > 100)) && ( chargeProduct < 0 && pt1 > 20 && pt2 > 20 && abs(eta1)<2.4  && abs(eta2) < 2.4 && ((abs(eta1) < 1.4 || abs(eta1) > 1.6) && (abs(eta2) < 1.4 || abs(eta2) > 1.6)) && p4.M() > 20 && deltaR > 0.3) && runNr < 99999999)*(id1 < 0.05 && id2 < 0.05)*(p4.M()> 81 && p4.M() < 101)'
p132
sg9
L353L
ssg10
(dp133
g5
L365L
sg6
L302L
sg7
S'weight*(((nJets >= 2 && met > 150) || (nJets>=3 && met > 100)) && ( chargeProduct < 0 && pt1 > 20 && pt2 > 20 && abs(eta1)<2.4  && abs(eta2) < 2.4 && ((abs(eta1) < 1.4 || abs(eta1) > 1.6) && (abs(eta2) < 1.4 || abs(eta2) > 1.6)) && p4.M() > 20 && deltaR > 0.3) && runNr < 99999999)*(id1 < 0.05 && id2 < 0.05)*(p4.M()> 20 && p4.M() < 70)'
p134
sg9
L580L
ssg13
(dp135
g5
L499L
sg6
L455L
sg7
S'weight*(((nJets >= 2 && met > 150) || (nJets>=3 && met > 100)) && ( chargeProduct < 0 && pt1 > 20 && pt2 > 20 && abs(eta1)<2.4  && abs(eta2) < 2.4 && ((abs(eta1) < 1.4 || abs(eta1) > 1.6) && (abs(eta2) < 1.4 || abs(eta2) > 1.6)) && p4.M() > 20 && deltaR > 0.3) && runNr < 99999999)*(id1 < 0.05 && id2 < 0.05)*(p4.M() > 120)'
p136
sg9
L910L
ssg16
(dp137
g5
L1397L
sg6
L1196L
sg7
S'weight*(((nJets >= 2 && met > 150) || (nJets>=3 && met > 100)) && ( chargeProduct < 0 && pt1 > 20 && pt2 > 20 && abs(eta1)<2.4  && abs(eta2) < 2.4 && ((abs(eta1) < 1.4 || abs(eta1) > 1.6) && (abs(eta2) < 1.4 || abs(eta2) > 1.6)) && p4.M() > 20 && deltaR > 0.3) && runNr < 99999999)*(id1 < 0.05 && id2 < 0.05)*(p4.M() > 20)'
p138
sg9
L2290L
sssS'noBTags'
p139
(dp140
g3
(dp141
g5
L116L
sg6
L131L
sg7
S'weight*(((nJets >= 2 && met > 150) || (nJets>=3 && met > 100)) && ( chargeProduct < 0 && pt1 > 20 && pt2 > 20 && abs(eta1)<2.4  && abs(eta2) < 2.4 && ((abs(eta1) < 1.4 || abs(eta1) > 1.6) && (abs(eta2) < 1.4 || abs(eta2) > 1.6)) && p4.M() > 20 && deltaR > 0.3) && runNr < 99999999)*(nBJets == 0)*(p4.M()> 81 && p4.M() < 101)'
p142
sg9
L112L
ssg10
(dp143
g5
L143L
sg6
L108L
sg7
S'weight*(((nJets >= 2 && met > 150) || (nJets>=3 && met > 100)) && ( chargeProduct < 0 && pt1 > 20 && pt2 > 20 && abs(eta1)<2.4  && abs(eta2) < 2.4 && ((abs(eta1) < 1.4 || abs(eta1) > 1.6) && (abs(eta2) < 1.4 || abs(eta2) > 1.6)) && p4.M() > 20 && deltaR > 0.3) && runNr < 99999999)*(nBJets == 0)*(p4.M()> 20 && p4.M() < 70)'
p144
sg9
L236L
ssg13
(dp145
g5
L139L
sg6
L124L
sg7
S'weight*(((nJets >= 2 && met > 150) || (nJets>=3 && met > 100)) && ( chargeProduct < 0 && pt1 > 20 && pt2 > 20 && abs(eta1)<2.4  && abs(eta2) < 2.4 && ((abs(eta1) < 1.4 || abs(eta1) > 1.6) && (abs(eta2) < 1.4 || abs(eta2) > 1.6)) && p4.M() > 20 && deltaR > 0.3) && runNr < 99999999)*(nBJets == 0)*(p4.M() > 120)'
p146
sg9
L270L
ssg16
(dp147
g5
L478L
sg6
L440L
sg7
S'weight*(((nJets >= 2 && met > 150) || (nJets>=3 && met > 100)) && ( chargeProduct < 0 && pt1 > 20 && pt2 > 20 && abs(eta1)<2.4  && abs(eta2) < 2.4 && ((abs(eta1) < 1.4 || abs(eta1) > 1.6) && (abs(eta2) < 1.4 || abs(eta2) > 1.6)) && p4.M() > 20 && deltaR > 0.3) && runNr < 99999999)*(nBJets == 0)*(p4.M() > 20)'
p148
sg9
L751L
sssS'caloMet'
p149
(dp150
g3
(dp151
g5
L603L
sg6
L287L
sg7
S'weight*(((nJets >= 2 && caloMet > 150) || (nJets>=3 && caloMet > 100)) && ( chargeProduct < 0 && pt1 > 20 && pt2 > 20 && abs(eta1)<2.4  && abs(eta2) < 2.4 && ((abs(eta1) < 1.4 || abs(eta1) > 1.6) && (abs(eta2) < 1.4 || abs(eta2) > 1.6)) && p4.M() > 20 && deltaR > 0.3) && runNr < 99999999)*(p4.M()> 81 && p4.M() < 101)'
p152
sg9
L449L
ssg10
(dp153
g5
L583L
sg6
L410L
sg7
S'weight*(((nJets >= 2 && caloMet > 150) || (nJets>=3 && caloMet > 100)) && ( chargeProduct < 0 && pt1 > 20 && pt2 > 20 && abs(eta1)<2.4  && abs(eta2) < 2.4 && ((abs(eta1) < 1.4 || abs(eta1) > 1.6) && (abs(eta2) < 1.4 || abs(eta2) > 1.6)) && p4.M() > 20 && deltaR > 0.3) && runNr < 99999999)*(p4.M()> 20 && p4.M() < 70)'
p154
sg9
L827L
ssg13
(dp155
g5
L724L
sg6
L580L
sg7
S'weight*(((nJets >= 2 && caloMet > 150) || (nJets>=3 && caloMet > 100)) && ( chargeProduct < 0 && pt1 > 20 && pt2 > 20 && abs(eta1)<2.4  && abs(eta2) < 2.4 && ((abs(eta1) < 1.4 || abs(eta1) > 1.6) && (abs(eta2) < 1.4 || abs(eta2) > 1.6)) && p4.M() > 20 && deltaR > 0.3) && runNr < 99999999)*(p4.M() > 120)'
p156
sg9
L1176L
ssg16
(dp157
g5
L2338L
sg6
L1579L
sg7
S'weight*(((nJets >= 2 && caloMet > 150) || (nJets>=3 && caloMet > 100)) && ( chargeProduct < 0 && pt1 > 20 && pt2 > 20 && abs(eta1)<2.4  && abs(eta2) < 2.4 && ((abs(eta1) < 1.4 || abs(eta1) > 1.6) && (abs(eta2) < 1.4 || abs(eta2) > 1.6)) && p4.M() > 20 && deltaR > 0.3) && runNr < 99999999)*(p4.M() > 20)'
p158
sg9
L3059L
sssS'type1Met'
p159
(dp160
g3
(dp161
g5
L413L
sg6
L359L
sg7
S'weight*(((nJets >= 2 && type1Met > 150) || (nJets>=3 && type1Met > 100)) && ( chargeProduct < 0 && pt1 > 20 && pt2 > 20 && abs(eta1)<2.4  && abs(eta2) < 2.4 && ((abs(eta1) < 1.4 || abs(eta1) > 1.6) && (abs(eta2) < 1.4 || abs(eta2) > 1.6)) && p4.M() > 20 && deltaR > 0.3) && runNr < 99999999)*(p4.M()> 81 && p4.M() < 101)'
p162
sg9
L590L
ssg10
(dp163
g5
L694L
sg6
L531L
sg7
S'weight*(((nJets >= 2 && type1Met > 150) || (nJets>=3 && type1Met > 100)) && ( chargeProduct < 0 && pt1 > 20 && pt2 > 20 && abs(eta1)<2.4  && abs(eta2) < 2.4 && ((abs(eta1) < 1.4 || abs(eta1) > 1.6) && (abs(eta2) < 1.4 || abs(eta2) > 1.6)) && p4.M() > 20 && deltaR > 0.3) && runNr < 99999999)*(p4.M()> 20 && p4.M() < 70)'
p164
sg9
L1093L
ssg13
(dp165
g5
L740L
sg6
L707L
sg7
S'weight*(((nJets >= 2 && type1Met > 150) || (nJets>=3 && type1Met > 100)) && ( chargeProduct < 0 && pt1 > 20 && pt2 > 20 && abs(eta1)<2.4  && abs(eta2) < 2.4 && ((abs(eta1) < 1.4 || abs(eta1) > 1.6) && (abs(eta2) < 1.4 || abs(eta2) > 1.6)) && p4.M() > 20 && deltaR > 0.3) && runNr < 99999999)*(p4.M() > 120)'
p166
sg9
L1354L
ssg16
(dp167
g5
L2315L
sg6
L1990L
sg7
S'weight*(((nJets >= 2 && type1Met > 150) || (nJets>=3 && type1Met > 100)) && ( chargeProduct < 0 && pt1 > 20 && pt2 > 20 && abs(eta1)<2.4  && abs(eta2) < 2.4 && ((abs(eta1) < 1.4 || abs(eta1) > 1.6) && (abs(eta2) < 1.4 || abs(eta2) > 1.6)) && p4.M() > 20 && deltaR > 0.3) && runNr < 99999999)*(p4.M() > 20)'
p168
sg9
L3805L
sssS'mht'
p169
(dp170
g3
(dp171
g5
L949L
sg6
L743L
sg7
S'weight*(((nJets >= 2 && mht > 150) || (nJets>=3 && mht > 100)) && ( chargeProduct < 0 && pt1 > 20 && pt2 > 20 && abs(eta1)<2.4  && abs(eta2) < 2.4 && ((abs(eta1) < 1.4 || abs(eta1) > 1.6) && (abs(eta2) < 1.4 || abs(eta2) > 1.6)) && p4.M() > 20 && deltaR > 0.3) && runNr < 99999999)*(p4.M()> 81 && p4.M() < 101)'
p172
sg9
L636L
ssg10
(dp173
g5
L808L
sg6
L606L
sg7
S'weight*(((nJets >= 2 && mht > 150) || (nJets>=3 && mht > 100)) && ( chargeProduct < 0 && pt1 > 20 && pt2 > 20 && abs(eta1)<2.4  && abs(eta2) < 2.4 && ((abs(eta1) < 1.4 || abs(eta1) > 1.6) && (abs(eta2) < 1.4 || abs(eta2) > 1.6)) && p4.M() > 20 && deltaR > 0.3) && runNr < 99999999)*(p4.M()> 20 && p4.M() < 70)'
p174
sg9
L1112L
ssg13
(dp175
g5
L865L
sg6
L791L
sg7
S'weight*(((nJets >= 2 && mht > 150) || (nJets>=3 && mht > 100)) && ( chargeProduct < 0 && pt1 > 20 && pt2 > 20 && abs(eta1)<2.4  && abs(eta2) < 2.4 && ((abs(eta1) < 1.4 || abs(eta1) > 1.6) && (abs(eta2) < 1.4 || abs(eta2) > 1.6)) && p4.M() > 20 && deltaR > 0.3) && runNr < 99999999)*(p4.M() > 120)'
p176
sg9
L1536L
ssg16
(dp177
g5
L3153L
sg6
L2568L
sg7
S'weight*(((nJets >= 2 && mht > 150) || (nJets>=3 && mht > 100)) && ( chargeProduct < 0 && pt1 > 20 && pt2 > 20 && abs(eta1)<2.4  && abs(eta2) < 2.4 && ((abs(eta1) < 1.4 || abs(eta1) > 1.6) && (abs(eta2) < 1.4 || abs(eta2) > 1.6)) && p4.M() > 20 && deltaR > 0.3) && runNr < 99999999)*(p4.M() > 20)'
p178
sg9
L4090L
sssS'pt2010'
p179
(dp180
g3
(dp181
g5
L468L
sg6
L359L
sg7
S'weight*(((nJets >= 2 && met > 150) || (nJets>=3 && met > 100)) && ( chargeProduct < 0 &&  abs(eta1)<2.4  && abs(eta2) < 2.4 && ((abs(eta1) < 1.4 || abs(eta1) > 1.6) && (abs(eta2) < 1.4 || abs(eta2) > 1.6)) && p4.M() > 20 && deltaR > 0.3) && runNr < 99999999)*(((pt1 > 20 && pt2 > 10)||(pt1 > 10 && pt2 > 20)))*(p4.M()> 81 && p4.M() < 101)'
p182
sg9
L589L
ssg10
(dp183
g5
L1145L
sg6
L703L
sg7
S'weight*(((nJets >= 2 && met > 150) || (nJets>=3 && met > 100)) && ( chargeProduct < 0 &&  abs(eta1)<2.4  && abs(eta2) < 2.4 && ((abs(eta1) < 1.4 || abs(eta1) > 1.6) && (abs(eta2) < 1.4 || abs(eta2) > 1.6)) && p4.M() > 20 && deltaR > 0.3) && runNr < 99999999)*(((pt1 > 20 && pt2 > 10)||(pt1 > 10 && pt2 > 20)))*(p4.M()> 20 && p4.M() < 70)'
p184
sg9
L1621L
ssg13
(dp185
g5
L681L
sg6
L613L
sg7
S'weight*(((nJets >= 2 && met > 150) || (nJets>=3 && met > 100)) && ( chargeProduct < 0 &&  abs(eta1)<2.4  && abs(eta2) < 2.4 && ((abs(eta1) < 1.4 || abs(eta1) > 1.6) && (abs(eta2) < 1.4 || abs(eta2) > 1.6)) && p4.M() > 20 && deltaR > 0.3) && runNr < 99999999)*(((pt1 > 20 && pt2 > 10)||(pt1 > 10 && pt2 > 20)))*(p4.M() > 120)'
p186
sg9
L1236L
ssg16
(dp187
g5
L2764L
sg6
L2052L
sg7
S'weight*(((nJets >= 2 && met > 150) || (nJets>=3 && met > 100)) && ( chargeProduct < 0 &&  abs(eta1)<2.4  && abs(eta2) < 2.4 && ((abs(eta1) < 1.4 || abs(eta1) > 1.6) && (abs(eta2) < 1.4 || abs(eta2) > 1.6)) && p4.M() > 20 && deltaR > 0.3) && runNr < 99999999)*(((pt1 > 20 && pt2 > 10)||(pt1 > 10 && pt2 > 20)))*(p4.M() > 20)'
p188
sg9
L4232L
sssS'pt3030'
p189
(dp190
g3
(dp191
g5
L206L
sg6
L209L
sg7
S'weight*(((nJets >= 2 && met > 150) || (nJets>=3 && met > 100)) && ( chargeProduct < 0 &&  abs(eta1)<2.4  && abs(eta2) < 2.4 && ((abs(eta1) < 1.4 || abs(eta1) > 1.6) && (abs(eta2) < 1.4 || abs(eta2) > 1.6)) && p4.M() > 20 && deltaR > 0.3) && runNr < 99999999)*(pt1 > 30 && pt2 > 30)*(p4.M()> 81 && p4.M() < 101)'
p192
sg9
L301L
ssg10
(dp193
g5
L187L
sg6
L157L
sg7
S'weight*(((nJets >= 2 && met > 150) || (nJets>=3 && met > 100)) && ( chargeProduct < 0 &&  abs(eta1)<2.4  && abs(eta2) < 2.4 && ((abs(eta1) < 1.4 || abs(eta1) > 1.6) && (abs(eta2) < 1.4 || abs(eta2) > 1.6)) && p4.M() > 20 && deltaR > 0.3) && runNr < 99999999)*(pt1 > 30 && pt2 > 30)*(p4.M()> 20 && p4.M() < 70)'
p194
sg9
L313L
ssg13
(dp195
g5
L551L
sg6
L516L
sg7
S'weight*(((nJets >= 2 && met > 150) || (nJets>=3 && met > 100)) && ( chargeProduct < 0 &&  abs(eta1)<2.4  && abs(eta2) < 2.4 && ((abs(eta1) < 1.4 || abs(eta1) > 1.6) && (abs(eta2) < 1.4 || abs(eta2) > 1.6)) && p4.M() > 20 && deltaR > 0.3) && runNr < 99999999)*(pt1 > 30 && pt2 > 30)*(p4.M() > 120)'
p196
sg9
L1016L
ssg16
(dp197
g5
L1179L
sg6
L1095L
sg7
S'weight*(((nJets >= 2 && met > 150) || (nJets>=3 && met > 100)) && ( chargeProduct < 0 &&  abs(eta1)<2.4  && abs(eta2) < 2.4 && ((abs(eta1) < 1.4 || abs(eta1) > 1.6) && (abs(eta2) < 1.4 || abs(eta2) > 1.6)) && p4.M() > 20 && deltaR > 0.3) && runNr < 99999999)*(pt1 > 30 && pt2 > 30)*(p4.M() > 20)'
p198
sg9
L2015L
sssS'midPU'
p199
(dp200
g3
(dp201
g5
L83L
sg6
L90L
sg7
S'weight*(((nJets >= 2 && met > 150) || (nJets>=3 && met > 100)) && ( chargeProduct < 0 && pt1 > 20 && pt2 > 20 && abs(eta1)<2.4  && abs(eta2) < 2.4 && ((abs(eta1) < 1.4 || abs(eta1) > 1.6) && (abs(eta2) < 1.4 || abs(eta2) > 1.6)) && p4.M() > 20 && deltaR > 0.3) && runNr < 99999999)*(nVertices >= 13 && nVertices < 17)*(p4.M()> 81 && p4.M() < 101)'
p202
sg9
L155L
ssg10
(dp203
g5
L172L
sg6
L114L
sg7
S'weight*(((nJets >= 2 && met > 150) || (nJets>=3 && met > 100)) && ( chargeProduct < 0 && pt1 > 20 && pt2 > 20 && abs(eta1)<2.4  && abs(eta2) < 2.4 && ((abs(eta1) < 1.4 || abs(eta1) > 1.6) && (abs(eta2) < 1.4 || abs(eta2) > 1.6)) && p4.M() > 20 && deltaR > 0.3) && runNr < 99999999)*(nVertices >= 13 && nVertices < 17)*(p4.M()> 20 && p4.M() < 70)'
p204
sg9
L248L
ssg13
(dp205
g5
L193L
sg6
L149L
sg7
S'weight*(((nJets >= 2 && met > 150) || (nJets>=3 && met > 100)) && ( chargeProduct < 0 && pt1 > 20 && pt2 > 20 && abs(eta1)<2.4  && abs(eta2) < 2.4 && ((abs(eta1) < 1.4 || abs(eta1) > 1.6) && (abs(eta2) < 1.4 || abs(eta2) > 1.6)) && p4.M() > 20 && deltaR > 0.3) && runNr < 99999999)*(nVertices >= 13 && nVertices < 17)*(p4.M() > 120)'
p206
sg9
L333L
ssg16
(dp207
g5
L561L
sg6
L428L
sg7
S'weight*(((nJets >= 2 && met > 150) || (nJets>=3 && met > 100)) && ( chargeProduct < 0 && pt1 > 20 && pt2 > 20 && abs(eta1)<2.4  && abs(eta2) < 2.4 && ((abs(eta1) < 1.4 || abs(eta1) > 1.6) && (abs(eta2) < 1.4 || abs(eta2) > 1.6)) && p4.M() > 20 && deltaR > 0.3) && runNr < 99999999)*(nVertices >= 13 && nVertices < 17)*(p4.M() > 20)'
p208
sg9
L936L
sss.