(dp0
S'OneBTags'
p1
(dp2
S'zMass'
p3
(dp4
S'MM'
p5
L156L
sS'EE'
p6
L115L
sS'cut'
p7
S'weight*(((nJets >= 2 && met > 150) || (nJets>=3 && met > 100)) && ( chargeProduct < 0 && pt1 > 20 && pt2 > 20 && abs(eta1)<2.4  && abs(eta2) < 2.4 && ((abs(eta1) < 1.4 || abs(eta1) > 1.6) && (abs(eta2) < 1.4 || abs(eta2) > 1.6)) && p4.M() > 20 && deltaR > 0.3 && !(runNr == 195649 && lumiSec == 49 && eventNr == 75858433) && !(runNr == 195749 && lumiSec == 108 && eventNr == 216906941)) && runNr < 99999999)*(nBJets == 1)*(p4.M()> 81 && p4.M() < 101)'
p8
sS'EM'
p9
L243L
ssS'edgeMass'
p10
(dp11
g5
L240L
sg6
L204L
sg7
S'weight*(((nJets >= 2 && met > 150) || (nJets>=3 && met > 100)) && ( chargeProduct < 0 && pt1 > 20 && pt2 > 20 && abs(eta1)<2.4  && abs(eta2) < 2.4 && ((abs(eta1) < 1.4 || abs(eta1) > 1.6) && (abs(eta2) < 1.4 || abs(eta2) > 1.6)) && p4.M() > 20 && deltaR > 0.3 && !(runNr == 195649 && lumiSec == 49 && eventNr == 75858433) && !(runNr == 195749 && lumiSec == 108 && eventNr == 216906941)) && runNr < 99999999)*(nBJets == 1)*(p4.M()> 20 && p4.M() < 70)'
p12
sg9
L375L
ssS'highMass'
p13
(dp14
g5
L289L
sg6
L282L
sg7
S'weight*(((nJets >= 2 && met > 150) || (nJets>=3 && met > 100)) && ( chargeProduct < 0 && pt1 > 20 && pt2 > 20 && abs(eta1)<2.4  && abs(eta2) < 2.4 && ((abs(eta1) < 1.4 || abs(eta1) > 1.6) && (abs(eta2) < 1.4 || abs(eta2) > 1.6)) && p4.M() > 20 && deltaR > 0.3 && !(runNr == 195649 && lumiSec == 49 && eventNr == 75858433) && !(runNr == 195749 && lumiSec == 108 && eventNr == 216906941)) && runNr < 99999999)*(nBJets == 1)*(p4.M() > 120)'
p15
sg9
L552L
ssS'fullMassRange'
p16
(dp17
g5
L856L
sg6
L765L
sg7
S'weight*(((nJets >= 2 && met > 150) || (nJets>=3 && met > 100)) && ( chargeProduct < 0 && pt1 > 20 && pt2 > 20 && abs(eta1)<2.4  && abs(eta2) < 2.4 && ((abs(eta1) < 1.4 || abs(eta1) > 1.6) && (abs(eta2) < 1.4 || abs(eta2) > 1.6)) && p4.M() > 20 && deltaR > 0.3 && !(runNr == 195649 && lumiSec == 49 && eventNr == 75858433) && !(runNr == 195749 && lumiSec == 108 && eventNr == 216906941)) && runNr < 99999999)*(nBJets == 1)*(p4.M() > 20)'
p18
sg9
L1476L
sssS'ht100to300'
p19
(dp20
g3
(dp21
g5
L172L
sg6
L140L
sg7
S'weight*(((nJets >= 2 && met > 150) || (nJets>=3 && met > 100)) && ( chargeProduct < 0 && pt1 > 20 && pt2 > 20 && abs(eta1)<2.4  && abs(eta2) < 2.4 && ((abs(eta1) < 1.4 || abs(eta1) > 1.6) && (abs(eta2) < 1.4 || abs(eta2) > 1.6)) && p4.M() > 20 && deltaR > 0.3 && !(runNr == 195649 && lumiSec == 49 && eventNr == 75858433) && !(runNr == 195749 && lumiSec == 108 && eventNr == 216906941)) && runNr < 99999999)*(ht > 100 && ht < 300)*(p4.M()> 81 && p4.M() < 101)'
p22
sg9
L290L
ssg10
(dp23
g5
L304L
sg6
L236L
sg7
S'weight*(((nJets >= 2 && met > 150) || (nJets>=3 && met > 100)) && ( chargeProduct < 0 && pt1 > 20 && pt2 > 20 && abs(eta1)<2.4  && abs(eta2) < 2.4 && ((abs(eta1) < 1.4 || abs(eta1) > 1.6) && (abs(eta2) < 1.4 || abs(eta2) > 1.6)) && p4.M() > 20 && deltaR > 0.3 && !(runNr == 195649 && lumiSec == 49 && eventNr == 75858433) && !(runNr == 195749 && lumiSec == 108 && eventNr == 216906941)) && runNr < 99999999)*(ht > 100 && ht < 300)*(p4.M()> 20 && p4.M() < 70)'
p24
sg9
L476L
ssg13
(dp25
g5
L313L
sg6
L306L
sg7
S'weight*(((nJets >= 2 && met > 150) || (nJets>=3 && met > 100)) && ( chargeProduct < 0 && pt1 > 20 && pt2 > 20 && abs(eta1)<2.4  && abs(eta2) < 2.4 && ((abs(eta1) < 1.4 || abs(eta1) > 1.6) && (abs(eta2) < 1.4 || abs(eta2) > 1.6)) && p4.M() > 20 && deltaR > 0.3 && !(runNr == 195649 && lumiSec == 49 && eventNr == 75858433) && !(runNr == 195749 && lumiSec == 108 && eventNr == 216906941)) && runNr < 99999999)*(ht > 100 && ht < 300)*(p4.M() > 120)'
p26
sg9
L628L
ssg16
(dp27
g5
L1005L
sg6
L859L
sg7
S'weight*(((nJets >= 2 && met > 150) || (nJets>=3 && met > 100)) && ( chargeProduct < 0 && pt1 > 20 && pt2 > 20 && abs(eta1)<2.4  && abs(eta2) < 2.4 && ((abs(eta1) < 1.4 || abs(eta1) > 1.6) && (abs(eta2) < 1.4 || abs(eta2) > 1.6)) && p4.M() > 20 && deltaR > 0.3 && !(runNr == 195649 && lumiSec == 49 && eventNr == 75858433) && !(runNr == 195749 && lumiSec == 108 && eventNr == 216906941)) && runNr < 99999999)*(ht > 100 && ht < 300)*(p4.M() > 20)'
p28
sg9
L1741L
sssS'geOneBTags'
p29
(dp30
g3
(dp31
g5
L238L
sg6
L189L
sg7
S'weight*(((nJets >= 2 && met > 150) || (nJets>=3 && met > 100)) && ( chargeProduct < 0 && pt1 > 20 && pt2 > 20 && abs(eta1)<2.4  && abs(eta2) < 2.4 && ((abs(eta1) < 1.4 || abs(eta1) > 1.6) && (abs(eta2) < 1.4 || abs(eta2) > 1.6)) && p4.M() > 20 && deltaR > 0.3 && !(runNr == 195649 && lumiSec == 49 && eventNr == 75858433) && !(runNr == 195749 && lumiSec == 108 && eventNr == 216906941)) && runNr < 99999999)*(nBJets >= 1)*(p4.M()> 81 && p4.M() < 101)'
p32
sg9
L389L
ssg10
(dp33
g5
L437L
sg6
L337L
sg7
S'weight*(((nJets >= 2 && met > 150) || (nJets>=3 && met > 100)) && ( chargeProduct < 0 && pt1 > 20 && pt2 > 20 && abs(eta1)<2.4  && abs(eta2) < 2.4 && ((abs(eta1) < 1.4 || abs(eta1) > 1.6) && (abs(eta2) < 1.4 || abs(eta2) > 1.6)) && p4.M() > 20 && deltaR > 0.3 && !(runNr == 195649 && lumiSec == 49 && eventNr == 75858433) && !(runNr == 195749 && lumiSec == 108 && eventNr == 216906941)) && runNr < 99999999)*(nBJets >= 1)*(p4.M()> 20 && p4.M() < 70)'
p34
sg9
L650L
ssg13
(dp35
g5
L495L
sg6
L477L
sg7
S'weight*(((nJets >= 2 && met > 150) || (nJets>=3 && met > 100)) && ( chargeProduct < 0 && pt1 > 20 && pt2 > 20 && abs(eta1)<2.4  && abs(eta2) < 2.4 && ((abs(eta1) < 1.4 || abs(eta1) > 1.6) && (abs(eta2) < 1.4 || abs(eta2) > 1.6)) && p4.M() > 20 && deltaR > 0.3 && !(runNr == 195649 && lumiSec == 49 && eventNr == 75858433) && !(runNr == 195749 && lumiSec == 108 && eventNr == 216906941)) && runNr < 99999999)*(nBJets >= 1)*(p4.M() > 120)'
p36
sg9
L910L
ssg16
(dp37
g5
L1467L
sg6
L1249L
sg7
S'weight*(((nJets >= 2 && met > 150) || (nJets>=3 && met > 100)) && ( chargeProduct < 0 && pt1 > 20 && pt2 > 20 && abs(eta1)<2.4  && abs(eta2) < 2.4 && ((abs(eta1) < 1.4 || abs(eta1) > 1.6) && (abs(eta2) < 1.4 || abs(eta2) > 1.6)) && p4.M() > 20 && deltaR > 0.3 && !(runNr == 195649 && lumiSec == 49 && eventNr == 75858433) && !(runNr == 195749 && lumiSec == 108 && eventNr == 216906941)) && runNr < 99999999)*(nBJets >= 1)*(p4.M() > 20)'
p38
sg9
L2465L
sssS'lowPU'
p39
(dp40
g3
(dp41
g5
L80L
sg6
L77L
sg7
S'weight*(((nJets >= 2 && met > 150) || (nJets>=3 && met > 100)) && ( chargeProduct < 0 && pt1 > 20 && pt2 > 20 && abs(eta1)<2.4  && abs(eta2) < 2.4 && ((abs(eta1) < 1.4 || abs(eta1) > 1.6) && (abs(eta2) < 1.4 || abs(eta2) > 1.6)) && p4.M() > 20 && deltaR > 0.3 && !(runNr == 195649 && lumiSec == 49 && eventNr == 75858433) && !(runNr == 195749 && lumiSec == 108 && eventNr == 216906941)) && runNr < 99999999)*(nVertices < 11)*(p4.M()> 81 && p4.M() < 101)'
p42
sg9
L107L
ssg10
(dp43
g5
L115L
sg6
L100L
sg7
S'weight*(((nJets >= 2 && met > 150) || (nJets>=3 && met > 100)) && ( chargeProduct < 0 && pt1 > 20 && pt2 > 20 && abs(eta1)<2.4  && abs(eta2) < 2.4 && ((abs(eta1) < 1.4 || abs(eta1) > 1.6) && (abs(eta2) < 1.4 || abs(eta2) > 1.6)) && p4.M() > 20 && deltaR > 0.3 && !(runNr == 195649 && lumiSec == 49 && eventNr == 75858433) && !(runNr == 195749 && lumiSec == 108 && eventNr == 216906941)) && runNr < 99999999)*(nVertices < 11)*(p4.M()> 20 && p4.M() < 70)'
p44
sg9
L215L
ssg13
(dp45
g5
L141L
sg6
L156L
sg7
S'weight*(((nJets >= 2 && met > 150) || (nJets>=3 && met > 100)) && ( chargeProduct < 0 && pt1 > 20 && pt2 > 20 && abs(eta1)<2.4  && abs(eta2) < 2.4 && ((abs(eta1) < 1.4 || abs(eta1) > 1.6) && (abs(eta2) < 1.4 || abs(eta2) > 1.6)) && p4.M() > 20 && deltaR > 0.3 && !(runNr == 195649 && lumiSec == 49 && eventNr == 75858433) && !(runNr == 195749 && lumiSec == 108 && eventNr == 216906941)) && runNr < 99999999)*(nVertices < 11)*(p4.M() > 120)'
p46
sg9
L269L
ssg16
(dp47
g5
L426L
sg6
L410L
sg7
S'weight*(((nJets >= 2 && met > 150) || (nJets>=3 && met > 100)) && ( chargeProduct < 0 && pt1 > 20 && pt2 > 20 && abs(eta1)<2.4  && abs(eta2) < 2.4 && ((abs(eta1) < 1.4 || abs(eta1) > 1.6) && (abs(eta2) < 1.4 || abs(eta2) > 1.6)) && p4.M() > 20 && deltaR > 0.3 && !(runNr == 195649 && lumiSec == 49 && eventNr == 75858433) && !(runNr == 195749 && lumiSec == 108 && eventNr == 216906941)) && runNr < 99999999)*(nVertices < 11)*(p4.M() > 20)'
p48
sg9
L738L
sssS'default'
p49
(dp50
g3
(dp51
g5
L355L
sg6
L323L
sg7
S'weight*(((nJets >= 2 && met > 150) || (nJets>=3 && met > 100)) && ( chargeProduct < 0 && pt1 > 20 && pt2 > 20 && abs(eta1)<2.4  && abs(eta2) < 2.4 && ((abs(eta1) < 1.4 || abs(eta1) > 1.6) && (abs(eta2) < 1.4 || abs(eta2) > 1.6)) && p4.M() > 20 && deltaR > 0.3 && !(runNr == 195649 && lumiSec == 49 && eventNr == 75858433) && !(runNr == 195749 && lumiSec == 108 && eventNr == 216906941)) && runNr < 99999999)*(p4.M()> 81 && p4.M() < 101)'
p52
sg9
L502L
ssg10
(dp53
g5
L580L
sg6
L445L
sg7
S'weight*(((nJets >= 2 && met > 150) || (nJets>=3 && met > 100)) && ( chargeProduct < 0 && pt1 > 20 && pt2 > 20 && abs(eta1)<2.4  && abs(eta2) < 2.4 && ((abs(eta1) < 1.4 || abs(eta1) > 1.6) && (abs(eta2) < 1.4 || abs(eta2) > 1.6)) && p4.M() > 20 && deltaR > 0.3 && !(runNr == 195649 && lumiSec == 49 && eventNr == 75858433) && !(runNr == 195749 && lumiSec == 108 && eventNr == 216906941)) && runNr < 99999999)*(p4.M()> 20 && p4.M() < 70)'
p54
sg9
L888L
ssg13
(dp55
g5
L636L
sg6
L604L
sg7
S'weight*(((nJets >= 2 && met > 150) || (nJets>=3 && met > 100)) && ( chargeProduct < 0 && pt1 > 20 && pt2 > 20 && abs(eta1)<2.4  && abs(eta2) < 2.4 && ((abs(eta1) < 1.4 || abs(eta1) > 1.6) && (abs(eta2) < 1.4 || abs(eta2) > 1.6)) && p4.M() > 20 && deltaR > 0.3 && !(runNr == 195649 && lumiSec == 49 && eventNr == 75858433) && !(runNr == 195749 && lumiSec == 108 && eventNr == 216906941)) && runNr < 99999999)*(p4.M() > 120)'
p56
sg9
L1182L
ssg16
(dp57
g5
L1949L
sg6
L1695L
sg7
S'weight*(((nJets >= 2 && met > 150) || (nJets>=3 && met > 100)) && ( chargeProduct < 0 && pt1 > 20 && pt2 > 20 && abs(eta1)<2.4  && abs(eta2) < 2.4 && ((abs(eta1) < 1.4 || abs(eta1) > 1.6) && (abs(eta2) < 1.4 || abs(eta2) > 1.6)) && p4.M() > 20 && deltaR > 0.3 && !(runNr == 195649 && lumiSec == 49 && eventNr == 75858433) && !(runNr == 195749 && lumiSec == 108 && eventNr == 216906941)) && runNr < 99999999)*(p4.M() > 20)'
p58
sg9
L3222L
sssS'pt3020'
p59
(dp60
g3
(dp61
g5
L633L
sg6
L600L
sg7
S'weight*(((nJets >= 2 && met > 150) || (nJets>=3 && met > 100)) && ( chargeProduct < 0 && pt1 > 20 && pt2 > 20 && abs(eta1)<2.4  && abs(eta2) < 2.4 && ((abs(eta1) < 1.4 || abs(eta1) > 1.6) && (abs(eta2) < 1.4 || abs(eta2) > 1.6)) && p4.M() > 20 && deltaR > 0.3 && !(runNr == 195649 && lumiSec == 49 && eventNr == 75858433) && !(runNr == 195749 && lumiSec == 108 && eventNr == 216906941)) && runNr < 99999999)*(((pt1 > 30 && pt2 > 20)||(pt1 > 20 && pt2 > 30)))*(p4.M() > 120)'
p62
sg9
L1178L
ssg10
(dp63
g5
L633L
sg6
L600L
sg7
g62
sg9
L1178L
ssg13
(dp64
g5
L633L
sg6
L600L
sg7
g62
sg9
L1178L
ssg16
(dp65
g5
L633L
sg6
L600L
sg7
g62
sg9
L1178L
sssS'ht300'
p66
(dp67
g3
(dp68
g5
L182L
sg6
L180L
sg7
S'weight*(((nJets >= 2 && met > 150) || (nJets>=3 && met > 100)) && ( chargeProduct < 0 && pt1 > 20 && pt2 > 20 && abs(eta1)<2.4  && abs(eta2) < 2.4 && ((abs(eta1) < 1.4 || abs(eta1) > 1.6) && (abs(eta2) < 1.4 || abs(eta2) > 1.6)) && p4.M() > 20 && deltaR > 0.3 && !(runNr == 195649 && lumiSec == 49 && eventNr == 75858433) && !(runNr == 195749 && lumiSec == 108 && eventNr == 216906941)) && runNr < 99999999)*(ht > 300)*(p4.M()> 81 && p4.M() < 101)'
p69
sg9
L211L
ssg10
(dp70
g5
L276L
sg6
L209L
sg7
S'weight*(((nJets >= 2 && met > 150) || (nJets>=3 && met > 100)) && ( chargeProduct < 0 && pt1 > 20 && pt2 > 20 && abs(eta1)<2.4  && abs(eta2) < 2.4 && ((abs(eta1) < 1.4 || abs(eta1) > 1.6) && (abs(eta2) < 1.4 || abs(eta2) > 1.6)) && p4.M() > 20 && deltaR > 0.3 && !(runNr == 195649 && lumiSec == 49 && eventNr == 75858433) && !(runNr == 195749 && lumiSec == 108 && eventNr == 216906941)) && runNr < 99999999)*(ht > 300)*(p4.M()> 20 && p4.M() < 70)'
p71
sg9
L411L
ssg13
(dp72
g5
L320L
sg6
L295L
sg7
S'weight*(((nJets >= 2 && met > 150) || (nJets>=3 && met > 100)) && ( chargeProduct < 0 && pt1 > 20 && pt2 > 20 && abs(eta1)<2.4  && abs(eta2) < 2.4 && ((abs(eta1) < 1.4 || abs(eta1) > 1.6) && (abs(eta2) < 1.4 || abs(eta2) > 1.6)) && p4.M() > 20 && deltaR > 0.3 && !(runNr == 195649 && lumiSec == 49 && eventNr == 75858433) && !(runNr == 195749 && lumiSec == 108 && eventNr == 216906941)) && runNr < 99999999)*(ht > 300)*(p4.M() > 120)'
p73
sg9
L548L
ssg16
(dp74
g5
L940L
sg6
L829L
sg7
S'weight*(((nJets >= 2 && met > 150) || (nJets>=3 && met > 100)) && ( chargeProduct < 0 && pt1 > 20 && pt2 > 20 && abs(eta1)<2.4  && abs(eta2) < 2.4 && ((abs(eta1) < 1.4 || abs(eta1) > 1.6) && (abs(eta2) < 1.4 || abs(eta2) > 1.6)) && p4.M() > 20 && deltaR > 0.3 && !(runNr == 195649 && lumiSec == 49 && eventNr == 75858433) && !(runNr == 195749 && lumiSec == 108 && eventNr == 216906941)) && runNr < 99999999)*(ht > 300)*(p4.M() > 20)'
p75
sg9
L1472L
sssS'highPU'
p76
(dp77
g3
(dp78
g5
L150L
sg6
L133L
sg7
S'weight*(((nJets >= 2 && met > 150) || (nJets>=3 && met > 100)) && ( chargeProduct < 0 && pt1 > 20 && pt2 > 20 && abs(eta1)<2.4  && abs(eta2) < 2.4 && ((abs(eta1) < 1.4 || abs(eta1) > 1.6) && (abs(eta2) < 1.4 || abs(eta2) > 1.6)) && p4.M() > 20 && deltaR > 0.3 && !(runNr == 195649 && lumiSec == 49 && eventNr == 75858433) && !(runNr == 195749 && lumiSec == 108 && eventNr == 216906941)) && runNr < 99999999)*(nVertices >= 16)*(p4.M()> 81 && p4.M() < 101)'
p79
sg9
L193L
ssg10
(dp80
g5
L251L
sg6
L176L
sg7
S'weight*(((nJets >= 2 && met > 150) || (nJets>=3 && met > 100)) && ( chargeProduct < 0 && pt1 > 20 && pt2 > 20 && abs(eta1)<2.4  && abs(eta2) < 2.4 && ((abs(eta1) < 1.4 || abs(eta1) > 1.6) && (abs(eta2) < 1.4 || abs(eta2) > 1.6)) && p4.M() > 20 && deltaR > 0.3 && !(runNr == 195649 && lumiSec == 49 && eventNr == 75858433) && !(runNr == 195749 && lumiSec == 108 && eventNr == 216906941)) && runNr < 99999999)*(nVertices >= 16)*(p4.M()> 20 && p4.M() < 70)'
p81
sg9
L357L
ssg13
(dp82
g5
L265L
sg6
L242L
sg7
S'weight*(((nJets >= 2 && met > 150) || (nJets>=3 && met > 100)) && ( chargeProduct < 0 && pt1 > 20 && pt2 > 20 && abs(eta1)<2.4  && abs(eta2) < 2.4 && ((abs(eta1) < 1.4 || abs(eta1) > 1.6) && (abs(eta2) < 1.4 || abs(eta2) > 1.6)) && p4.M() > 20 && deltaR > 0.3 && !(runNr == 195649 && lumiSec == 49 && eventNr == 75858433) && !(runNr == 195749 && lumiSec == 108 && eventNr == 216906941)) && runNr < 99999999)*(nVertices >= 16)*(p4.M() > 120)'
p83
sg9
L490L
ssg16
(dp84
g5
L805L
sg6
L690L
sg7
S'weight*(((nJets >= 2 && met > 150) || (nJets>=3 && met > 100)) && ( chargeProduct < 0 && pt1 > 20 && pt2 > 20 && abs(eta1)<2.4  && abs(eta2) < 2.4 && ((abs(eta1) < 1.4 || abs(eta1) > 1.6) && (abs(eta2) < 1.4 || abs(eta2) > 1.6)) && p4.M() > 20 && deltaR > 0.3 && !(runNr == 195649 && lumiSec == 49 && eventNr == 75858433) && !(runNr == 195749 && lumiSec == 108 && eventNr == 216906941)) && runNr < 99999999)*(nVertices >= 16)*(p4.M() > 20)'
p85
sg9
L1312L
sssS'tcMet'
p86
(dp87
g3
(dp88
g5
L611L
sg6
L292L
sg7
S'weight*(((nJets >= 2 && tcMet > 150) || (nJets>=3 && tcMet > 100)) && ( chargeProduct < 0 && pt1 > 20 && pt2 > 20 && abs(eta1)<2.4  && abs(eta2) < 2.4 && ((abs(eta1) < 1.4 || abs(eta1) > 1.6) && (abs(eta2) < 1.4 || abs(eta2) > 1.6)) && p4.M() > 20 && deltaR > 0.3 && !(runNr == 195649 && lumiSec == 49 && eventNr == 75858433) && !(runNr == 195749 && lumiSec == 108 && eventNr == 216906941)) && runNr < 99999999)*(p4.M()> 81 && p4.M() < 101)'
p89
sg9
L455L
ssg10
(dp90
g5
L588L
sg6
L413L
sg7
S'weight*(((nJets >= 2 && tcMet > 150) || (nJets>=3 && tcMet > 100)) && ( chargeProduct < 0 && pt1 > 20 && pt2 > 20 && abs(eta1)<2.4  && abs(eta2) < 2.4 && ((abs(eta1) < 1.4 || abs(eta1) > 1.6) && (abs(eta2) < 1.4 || abs(eta2) > 1.6)) && p4.M() > 20 && deltaR > 0.3 && !(runNr == 195649 && lumiSec == 49 && eventNr == 75858433) && !(runNr == 195749 && lumiSec == 108 && eventNr == 216906941)) && runNr < 99999999)*(p4.M()> 20 && p4.M() < 70)'
p91
sg9
L836L
ssg13
(dp92
g5
L727L
sg6
L587L
sg7
S'weight*(((nJets >= 2 && tcMet > 150) || (nJets>=3 && tcMet > 100)) && ( chargeProduct < 0 && pt1 > 20 && pt2 > 20 && abs(eta1)<2.4  && abs(eta2) < 2.4 && ((abs(eta1) < 1.4 || abs(eta1) > 1.6) && (abs(eta2) < 1.4 || abs(eta2) > 1.6)) && p4.M() > 20 && deltaR > 0.3 && !(runNr == 195649 && lumiSec == 49 && eventNr == 75858433) && !(runNr == 195749 && lumiSec == 108 && eventNr == 216906941)) && runNr < 99999999)*(p4.M() > 120)'
p93
sg9
L1184L
ssg16
(dp94
g5
L2357L
sg6
L1594L
sg7
S'weight*(((nJets >= 2 && tcMet > 150) || (nJets>=3 && tcMet > 100)) && ( chargeProduct < 0 && pt1 > 20 && pt2 > 20 && abs(eta1)<2.4  && abs(eta2) < 2.4 && ((abs(eta1) < 1.4 || abs(eta1) > 1.6) && (abs(eta2) < 1.4 || abs(eta2) > 1.6)) && p4.M() > 20 && deltaR > 0.3 && !(runNr == 195649 && lumiSec == 49 && eventNr == 75858433) && !(runNr == 195749 && lumiSec == 108 && eventNr == 216906941)) && runNr < 99999999)*(p4.M() > 20)'
p95
sg9
L3088L
sssS'geTwoBTags'
p96
(dp97
g3
(dp98
g5
L82L
sg6
L74L
sg7
S'weight*(((nJets >= 2 && met > 150) || (nJets>=3 && met > 100)) && ( chargeProduct < 0 && pt1 > 20 && pt2 > 20 && abs(eta1)<2.4  && abs(eta2) < 2.4 && ((abs(eta1) < 1.4 || abs(eta1) > 1.6) && (abs(eta2) < 1.4 || abs(eta2) > 1.6)) && p4.M() > 20 && deltaR > 0.3 && !(runNr == 195649 && lumiSec == 49 && eventNr == 75858433) && !(runNr == 195749 && lumiSec == 108 && eventNr == 216906941)) && runNr < 99999999)*(nBJets >= 2)*(p4.M()> 81 && p4.M() < 101)'
p99
sg9
L146L
ssg10
(dp100
g5
L197L
sg6
L133L
sg7
S'weight*(((nJets >= 2 && met > 150) || (nJets>=3 && met > 100)) && ( chargeProduct < 0 && pt1 > 20 && pt2 > 20 && abs(eta1)<2.4  && abs(eta2) < 2.4 && ((abs(eta1) < 1.4 || abs(eta1) > 1.6) && (abs(eta2) < 1.4 || abs(eta2) > 1.6)) && p4.M() > 20 && deltaR > 0.3 && !(runNr == 195649 && lumiSec == 49 && eventNr == 75858433) && !(runNr == 195749 && lumiSec == 108 && eventNr == 216906941)) && runNr < 99999999)*(nBJets >= 2)*(p4.M()> 20 && p4.M() < 70)'
p101
sg9
L275L
ssg13
(dp102
g5
L206L
sg6
L195L
sg7
S'weight*(((nJets >= 2 && met > 150) || (nJets>=3 && met > 100)) && ( chargeProduct < 0 && pt1 > 20 && pt2 > 20 && abs(eta1)<2.4  && abs(eta2) < 2.4 && ((abs(eta1) < 1.4 || abs(eta1) > 1.6) && (abs(eta2) < 1.4 || abs(eta2) > 1.6)) && p4.M() > 20 && deltaR > 0.3 && !(runNr == 195649 && lumiSec == 49 && eventNr == 75858433) && !(runNr == 195749 && lumiSec == 108 && eventNr == 216906941)) && runNr < 99999999)*(nBJets >= 2)*(p4.M() > 120)'
p103
sg9
L358L
ssg16
(dp104
g5
L611L
sg6
L484L
sg7
S'weight*(((nJets >= 2 && met > 150) || (nJets>=3 && met > 100)) && ( chargeProduct < 0 && pt1 > 20 && pt2 > 20 && abs(eta1)<2.4  && abs(eta2) < 2.4 && ((abs(eta1) < 1.4 || abs(eta1) > 1.6) && (abs(eta2) < 1.4 || abs(eta2) > 1.6)) && p4.M() > 20 && deltaR > 0.3 && !(runNr == 195649 && lumiSec == 49 && eventNr == 75858433) && !(runNr == 195749 && lumiSec == 108 && eventNr == 216906941)) && runNr < 99999999)*(nBJets >= 2)*(p4.M() > 20)'
p105
sg9
L989L
sssS'TwoBTags'
p106
(dp107
g3
(dp108
g5
L78L
sg6
L69L
sg7
S'weight*(((nJets >= 2 && met > 150) || (nJets>=3 && met > 100)) && ( chargeProduct < 0 && pt1 > 20 && pt2 > 20 && abs(eta1)<2.4  && abs(eta2) < 2.4 && ((abs(eta1) < 1.4 || abs(eta1) > 1.6) && (abs(eta2) < 1.4 || abs(eta2) > 1.6)) && p4.M() > 20 && deltaR > 0.3 && !(runNr == 195649 && lumiSec == 49 && eventNr == 75858433) && !(runNr == 195749 && lumiSec == 108 && eventNr == 216906941)) && runNr < 99999999)*(nBJets == 2)*(p4.M()> 81 && p4.M() < 101)'
p109
sg9
L139L
ssg10
(dp110
g5
L181L
sg6
L125L
sg7
S'weight*(((nJets >= 2 && met > 150) || (nJets>=3 && met > 100)) && ( chargeProduct < 0 && pt1 > 20 && pt2 > 20 && abs(eta1)<2.4  && abs(eta2) < 2.4 && ((abs(eta1) < 1.4 || abs(eta1) > 1.6) && (abs(eta2) < 1.4 || abs(eta2) > 1.6)) && p4.M() > 20 && deltaR > 0.3 && !(runNr == 195649 && lumiSec == 49 && eventNr == 75858433) && !(runNr == 195749 && lumiSec == 108 && eventNr == 216906941)) && runNr < 99999999)*(nBJets == 2)*(p4.M()> 20 && p4.M() < 70)'
p111
sg9
L259L
ssg13
(dp112
g5
L193L
sg6
L182L
sg7
S'weight*(((nJets >= 2 && met > 150) || (nJets>=3 && met > 100)) && ( chargeProduct < 0 && pt1 > 20 && pt2 > 20 && abs(eta1)<2.4  && abs(eta2) < 2.4 && ((abs(eta1) < 1.4 || abs(eta1) > 1.6) && (abs(eta2) < 1.4 || abs(eta2) > 1.6)) && p4.M() > 20 && deltaR > 0.3 && !(runNr == 195649 && lumiSec == 49 && eventNr == 75858433) && !(runNr == 195749 && lumiSec == 108 && eventNr == 216906941)) && runNr < 99999999)*(nBJets == 2)*(p4.M() > 120)'
p113
sg9
L337L
ssg16
(dp114
g5
L575L
sg6
L455L
sg7
S'weight*(((nJets >= 2 && met > 150) || (nJets>=3 && met > 100)) && ( chargeProduct < 0 && pt1 > 20 && pt2 > 20 && abs(eta1)<2.4  && abs(eta2) < 2.4 && ((abs(eta1) < 1.4 || abs(eta1) > 1.6) && (abs(eta2) < 1.4 || abs(eta2) > 1.6)) && p4.M() > 20 && deltaR > 0.3 && !(runNr == 195649 && lumiSec == 49 && eventNr == 75858433) && !(runNr == 195749 && lumiSec == 108 && eventNr == 216906941)) && runNr < 99999999)*(nBJets == 2)*(p4.M() > 20)'
p115
sg9
L930L
sssS'pt3010'
p116
(dp117
g3
(dp118
g5
L633L
sg6
L600L
sg7
S'weight*(((nJets >= 2 && met > 150) || (nJets>=3 && met > 100)) && ( chargeProduct < 0 && pt1 > 20 && pt2 > 20 && abs(eta1)<2.4  && abs(eta2) < 2.4 && ((abs(eta1) < 1.4 || abs(eta1) > 1.6) && (abs(eta2) < 1.4 || abs(eta2) > 1.6)) && p4.M() > 20 && deltaR > 0.3 && !(runNr == 195649 && lumiSec == 49 && eventNr == 75858433) && !(runNr == 195749 && lumiSec == 108 && eventNr == 216906941)) && runNr < 99999999)*(((pt1 > 30 && pt2 > 10)||(pt1 > 10 && pt2 > 30)))*(p4.M() > 120)'
p119
sg9
L1178L
ssg10
(dp120
g5
L633L
sg6
L600L
sg7
g119
sg9
L1178L
ssg13
(dp121
g5
L633L
sg6
L600L
sg7
g119
sg9
L1178L
ssg16
(dp122
g5
L633L
sg6
L600L
sg7
g119
sg9
L1178L
sssS'TightIso'
p123
(dp124
g3
(dp125
g5
L270L
sg6
L221L
sg7
S'weight*(((nJets >= 2 && met > 150) || (nJets>=3 && met > 100)) && ( chargeProduct < 0 && pt1 > 20 && pt2 > 20 && abs(eta1)<2.4  && abs(eta2) < 2.4 && ((abs(eta1) < 1.4 || abs(eta1) > 1.6) && (abs(eta2) < 1.4 || abs(eta2) > 1.6)) && p4.M() > 20 && deltaR > 0.3 && !(runNr == 195649 && lumiSec == 49 && eventNr == 75858433) && !(runNr == 195749 && lumiSec == 108 && eventNr == 216906941)) && runNr < 99999999)*(id1 < 0.05 && id2 < 0.05)*(p4.M()> 81 && p4.M() < 101)'
p126
sg9
L357L
ssg10
(dp127
g5
L366L
sg6
L303L
sg7
S'weight*(((nJets >= 2 && met > 150) || (nJets>=3 && met > 100)) && ( chargeProduct < 0 && pt1 > 20 && pt2 > 20 && abs(eta1)<2.4  && abs(eta2) < 2.4 && ((abs(eta1) < 1.4 || abs(eta1) > 1.6) && (abs(eta2) < 1.4 || abs(eta2) > 1.6)) && p4.M() > 20 && deltaR > 0.3 && !(runNr == 195649 && lumiSec == 49 && eventNr == 75858433) && !(runNr == 195749 && lumiSec == 108 && eventNr == 216906941)) && runNr < 99999999)*(id1 < 0.05 && id2 < 0.05)*(p4.M()> 20 && p4.M() < 70)'
p128
sg9
L587L
ssg13
(dp129
g5
L501L
sg6
L462L
sg7
S'weight*(((nJets >= 2 && met > 150) || (nJets>=3 && met > 100)) && ( chargeProduct < 0 && pt1 > 20 && pt2 > 20 && abs(eta1)<2.4  && abs(eta2) < 2.4 && ((abs(eta1) < 1.4 || abs(eta1) > 1.6) && (abs(eta2) < 1.4 || abs(eta2) > 1.6)) && p4.M() > 20 && deltaR > 0.3 && !(runNr == 195649 && lumiSec == 49 && eventNr == 75858433) && !(runNr == 195749 && lumiSec == 108 && eventNr == 216906941)) && runNr < 99999999)*(id1 < 0.05 && id2 < 0.05)*(p4.M() > 120)'
p130
sg9
L918L
ssg16
(dp131
g5
L1404L
sg6
L1207L
sg7
S'weight*(((nJets >= 2 && met > 150) || (nJets>=3 && met > 100)) && ( chargeProduct < 0 && pt1 > 20 && pt2 > 20 && abs(eta1)<2.4  && abs(eta2) < 2.4 && ((abs(eta1) < 1.4 || abs(eta1) > 1.6) && (abs(eta2) < 1.4 || abs(eta2) > 1.6)) && p4.M() > 20 && deltaR > 0.3 && !(runNr == 195649 && lumiSec == 49 && eventNr == 75858433) && !(runNr == 195749 && lumiSec == 108 && eventNr == 216906941)) && runNr < 99999999)*(id1 < 0.05 && id2 < 0.05)*(p4.M() > 20)'
p132
sg9
L2315L
sssS'noBTags'
p133
(dp134
g3
(dp135
g5
L117L
sg6
L134L
sg7
S'weight*(((nJets >= 2 && met > 150) || (nJets>=3 && met > 100)) && ( chargeProduct < 0 && pt1 > 20 && pt2 > 20 && abs(eta1)<2.4  && abs(eta2) < 2.4 && ((abs(eta1) < 1.4 || abs(eta1) > 1.6) && (abs(eta2) < 1.4 || abs(eta2) > 1.6)) && p4.M() > 20 && deltaR > 0.3 && !(runNr == 195649 && lumiSec == 49 && eventNr == 75858433) && !(runNr == 195749 && lumiSec == 108 && eventNr == 216906941)) && runNr < 99999999)*(nBJets == 0)*(p4.M()> 81 && p4.M() < 101)'
p136
sg9
L113L
ssg10
(dp137
g5
L143L
sg6
L108L
sg7
S'weight*(((nJets >= 2 && met > 150) || (nJets>=3 && met > 100)) && ( chargeProduct < 0 && pt1 > 20 && pt2 > 20 && abs(eta1)<2.4  && abs(eta2) < 2.4 && ((abs(eta1) < 1.4 || abs(eta1) > 1.6) && (abs(eta2) < 1.4 || abs(eta2) > 1.6)) && p4.M() > 20 && deltaR > 0.3 && !(runNr == 195649 && lumiSec == 49 && eventNr == 75858433) && !(runNr == 195749 && lumiSec == 108 && eventNr == 216906941)) && runNr < 99999999)*(nBJets == 0)*(p4.M()> 20 && p4.M() < 70)'
p138
sg9
L238L
ssg13
(dp139
g5
L141L
sg6
L127L
sg7
S'weight*(((nJets >= 2 && met > 150) || (nJets>=3 && met > 100)) && ( chargeProduct < 0 && pt1 > 20 && pt2 > 20 && abs(eta1)<2.4  && abs(eta2) < 2.4 && ((abs(eta1) < 1.4 || abs(eta1) > 1.6) && (abs(eta2) < 1.4 || abs(eta2) > 1.6)) && p4.M() > 20 && deltaR > 0.3 && !(runNr == 195649 && lumiSec == 49 && eventNr == 75858433) && !(runNr == 195749 && lumiSec == 108 && eventNr == 216906941)) && runNr < 99999999)*(nBJets == 0)*(p4.M() > 120)'
p140
sg9
L272L
ssg16
(dp141
g5
L482L
sg6
L446L
sg7
S'weight*(((nJets >= 2 && met > 150) || (nJets>=3 && met > 100)) && ( chargeProduct < 0 && pt1 > 20 && pt2 > 20 && abs(eta1)<2.4  && abs(eta2) < 2.4 && ((abs(eta1) < 1.4 || abs(eta1) > 1.6) && (abs(eta2) < 1.4 || abs(eta2) > 1.6)) && p4.M() > 20 && deltaR > 0.3 && !(runNr == 195649 && lumiSec == 49 && eventNr == 75858433) && !(runNr == 195749 && lumiSec == 108 && eventNr == 216906941)) && runNr < 99999999)*(nBJets == 0)*(p4.M() > 20)'
p142
sg9
L757L
sssS'caloMet'
p143
(dp144
g3
(dp145
g5
L611L
sg6
L292L
sg7
S'weight*(((nJets >= 2 && caloMet > 150) || (nJets>=3 && caloMet > 100)) && ( chargeProduct < 0 && pt1 > 20 && pt2 > 20 && abs(eta1)<2.4  && abs(eta2) < 2.4 && ((abs(eta1) < 1.4 || abs(eta1) > 1.6) && (abs(eta2) < 1.4 || abs(eta2) > 1.6)) && p4.M() > 20 && deltaR > 0.3 && !(runNr == 195649 && lumiSec == 49 && eventNr == 75858433) && !(runNr == 195749 && lumiSec == 108 && eventNr == 216906941)) && runNr < 99999999)*(p4.M()> 81 && p4.M() < 101)'
p146
sg9
L455L
ssg10
(dp147
g5
L588L
sg6
L413L
sg7
S'weight*(((nJets >= 2 && caloMet > 150) || (nJets>=3 && caloMet > 100)) && ( chargeProduct < 0 && pt1 > 20 && pt2 > 20 && abs(eta1)<2.4  && abs(eta2) < 2.4 && ((abs(eta1) < 1.4 || abs(eta1) > 1.6) && (abs(eta2) < 1.4 || abs(eta2) > 1.6)) && p4.M() > 20 && deltaR > 0.3 && !(runNr == 195649 && lumiSec == 49 && eventNr == 75858433) && !(runNr == 195749 && lumiSec == 108 && eventNr == 216906941)) && runNr < 99999999)*(p4.M()> 20 && p4.M() < 70)'
p148
sg9
L836L
ssg13
(dp149
g5
L727L
sg6
L587L
sg7
S'weight*(((nJets >= 2 && caloMet > 150) || (nJets>=3 && caloMet > 100)) && ( chargeProduct < 0 && pt1 > 20 && pt2 > 20 && abs(eta1)<2.4  && abs(eta2) < 2.4 && ((abs(eta1) < 1.4 || abs(eta1) > 1.6) && (abs(eta2) < 1.4 || abs(eta2) > 1.6)) && p4.M() > 20 && deltaR > 0.3 && !(runNr == 195649 && lumiSec == 49 && eventNr == 75858433) && !(runNr == 195749 && lumiSec == 108 && eventNr == 216906941)) && runNr < 99999999)*(p4.M() > 120)'
p150
sg9
L1184L
ssg16
(dp151
g5
L2357L
sg6
L1594L
sg7
S'weight*(((nJets >= 2 && caloMet > 150) || (nJets>=3 && caloMet > 100)) && ( chargeProduct < 0 && pt1 > 20 && pt2 > 20 && abs(eta1)<2.4  && abs(eta2) < 2.4 && ((abs(eta1) < 1.4 || abs(eta1) > 1.6) && (abs(eta2) < 1.4 || abs(eta2) > 1.6)) && p4.M() > 20 && deltaR > 0.3 && !(runNr == 195649 && lumiSec == 49 && eventNr == 75858433) && !(runNr == 195749 && lumiSec == 108 && eventNr == 216906941)) && runNr < 99999999)*(p4.M() > 20)'
p152
sg9
L3088L
sssS'type1Met'
p153
(dp154
g3
(dp155
g5
L418L
sg6
L364L
sg7
S'weight*(((nJets >= 2 && type1Met > 150) || (nJets>=3 && type1Met > 100)) && ( chargeProduct < 0 && pt1 > 20 && pt2 > 20 && abs(eta1)<2.4  && abs(eta2) < 2.4 && ((abs(eta1) < 1.4 || abs(eta1) > 1.6) && (abs(eta2) < 1.4 || abs(eta2) > 1.6)) && p4.M() > 20 && deltaR > 0.3 && !(runNr == 195649 && lumiSec == 49 && eventNr == 75858433) && !(runNr == 195749 && lumiSec == 108 && eventNr == 216906941)) && runNr < 99999999)*(p4.M()> 81 && p4.M() < 101)'
p156
sg9
L597L
ssg10
(dp157
g5
L701L
sg6
L534L
sg7
S'weight*(((nJets >= 2 && type1Met > 150) || (nJets>=3 && type1Met > 100)) && ( chargeProduct < 0 && pt1 > 20 && pt2 > 20 && abs(eta1)<2.4  && abs(eta2) < 2.4 && ((abs(eta1) < 1.4 || abs(eta1) > 1.6) && (abs(eta2) < 1.4 || abs(eta2) > 1.6)) && p4.M() > 20 && deltaR > 0.3 && !(runNr == 195649 && lumiSec == 49 && eventNr == 75858433) && !(runNr == 195749 && lumiSec == 108 && eventNr == 216906941)) && runNr < 99999999)*(p4.M()> 20 && p4.M() < 70)'
p158
sg9
L1109L
ssg13
(dp159
g5
L743L
sg6
L717L
sg7
S'weight*(((nJets >= 2 && type1Met > 150) || (nJets>=3 && type1Met > 100)) && ( chargeProduct < 0 && pt1 > 20 && pt2 > 20 && abs(eta1)<2.4  && abs(eta2) < 2.4 && ((abs(eta1) < 1.4 || abs(eta1) > 1.6) && (abs(eta2) < 1.4 || abs(eta2) > 1.6)) && p4.M() > 20 && deltaR > 0.3 && !(runNr == 195649 && lumiSec == 49 && eventNr == 75858433) && !(runNr == 195749 && lumiSec == 108 && eventNr == 216906941)) && runNr < 99999999)*(p4.M() > 120)'
p160
sg9
L1365L
ssg16
(dp161
g5
L2333L
sg6
L2009L
sg7
S'weight*(((nJets >= 2 && type1Met > 150) || (nJets>=3 && type1Met > 100)) && ( chargeProduct < 0 && pt1 > 20 && pt2 > 20 && abs(eta1)<2.4  && abs(eta2) < 2.4 && ((abs(eta1) < 1.4 || abs(eta1) > 1.6) && (abs(eta2) < 1.4 || abs(eta2) > 1.6)) && p4.M() > 20 && deltaR > 0.3 && !(runNr == 195649 && lumiSec == 49 && eventNr == 75858433) && !(runNr == 195749 && lumiSec == 108 && eventNr == 216906941)) && runNr < 99999999)*(p4.M() > 20)'
p162
sg9
L3848L
sssS'mht'
p163
(dp164
g3
(dp165
g5
L960L
sg6
L754L
sg7
S'weight*(((nJets >= 2 && mht > 150) || (nJets>=3 && mht > 100)) && ( chargeProduct < 0 && pt1 > 20 && pt2 > 20 && abs(eta1)<2.4  && abs(eta2) < 2.4 && ((abs(eta1) < 1.4 || abs(eta1) > 1.6) && (abs(eta2) < 1.4 || abs(eta2) > 1.6)) && p4.M() > 20 && deltaR > 0.3 && !(runNr == 195649 && lumiSec == 49 && eventNr == 75858433) && !(runNr == 195749 && lumiSec == 108 && eventNr == 216906941)) && runNr < 99999999)*(p4.M()> 81 && p4.M() < 101)'
p166
sg9
L642L
ssg10
(dp167
g5
L813L
sg6
L611L
sg7
S'weight*(((nJets >= 2 && mht > 150) || (nJets>=3 && mht > 100)) && ( chargeProduct < 0 && pt1 > 20 && pt2 > 20 && abs(eta1)<2.4  && abs(eta2) < 2.4 && ((abs(eta1) < 1.4 || abs(eta1) > 1.6) && (abs(eta2) < 1.4 || abs(eta2) > 1.6)) && p4.M() > 20 && deltaR > 0.3 && !(runNr == 195649 && lumiSec == 49 && eventNr == 75858433) && !(runNr == 195749 && lumiSec == 108 && eventNr == 216906941)) && runNr < 99999999)*(p4.M()> 20 && p4.M() < 70)'
p168
sg9
L1131L
ssg13
(dp169
g5
L871L
sg6
L804L
sg7
S'weight*(((nJets >= 2 && mht > 150) || (nJets>=3 && mht > 100)) && ( chargeProduct < 0 && pt1 > 20 && pt2 > 20 && abs(eta1)<2.4  && abs(eta2) < 2.4 && ((abs(eta1) < 1.4 || abs(eta1) > 1.6) && (abs(eta2) < 1.4 || abs(eta2) > 1.6)) && p4.M() > 20 && deltaR > 0.3 && !(runNr == 195649 && lumiSec == 49 && eventNr == 75858433) && !(runNr == 195749 && lumiSec == 108 && eventNr == 216906941)) && runNr < 99999999)*(p4.M() > 120)'
p170
sg9
L1550L
ssg16
(dp171
g5
L3177L
sg6
L2600L
sg7
S'weight*(((nJets >= 2 && mht > 150) || (nJets>=3 && mht > 100)) && ( chargeProduct < 0 && pt1 > 20 && pt2 > 20 && abs(eta1)<2.4  && abs(eta2) < 2.4 && ((abs(eta1) < 1.4 || abs(eta1) > 1.6) && (abs(eta2) < 1.4 || abs(eta2) > 1.6)) && p4.M() > 20 && deltaR > 0.3 && !(runNr == 195649 && lumiSec == 49 && eventNr == 75858433) && !(runNr == 195749 && lumiSec == 108 && eventNr == 216906941)) && runNr < 99999999)*(p4.M() > 20)'
p172
sg9
L4141L
sssS'pt2010'
p173
(dp174
g3
(dp175
g5
L636L
sg6
L604L
sg7
S'weight*(((nJets >= 2 && met > 150) || (nJets>=3 && met > 100)) && ( chargeProduct < 0 && pt1 > 20 && pt2 > 20 && abs(eta1)<2.4  && abs(eta2) < 2.4 && ((abs(eta1) < 1.4 || abs(eta1) > 1.6) && (abs(eta2) < 1.4 || abs(eta2) > 1.6)) && p4.M() > 20 && deltaR > 0.3 && !(runNr == 195649 && lumiSec == 49 && eventNr == 75858433) && !(runNr == 195749 && lumiSec == 108 && eventNr == 216906941)) && runNr < 99999999)*(((pt1 > 20 && pt2 > 10)||(pt1 > 10 && pt2 > 20)))*(p4.M() > 120)'
p176
sg9
L1182L
ssg10
(dp177
g5
L636L
sg6
L604L
sg7
g176
sg9
L1182L
ssg13
(dp178
g5
L636L
sg6
L604L
sg7
g176
sg9
L1182L
ssg16
(dp179
g5
L636L
sg6
L604L
sg7
g176
sg9
L1182L
sssS'pt3030'
p180
(dp181
g3
(dp182
g5
L553L
sg6
L524L
sg7
S'weight*(((nJets >= 2 && met > 150) || (nJets>=3 && met > 100)) && ( chargeProduct < 0 && pt1 > 20 && pt2 > 20 && abs(eta1)<2.4  && abs(eta2) < 2.4 && ((abs(eta1) < 1.4 || abs(eta1) > 1.6) && (abs(eta2) < 1.4 || abs(eta2) > 1.6)) && p4.M() > 20 && deltaR > 0.3 && !(runNr == 195649 && lumiSec == 49 && eventNr == 75858433) && !(runNr == 195749 && lumiSec == 108 && eventNr == 216906941)) && runNr < 99999999)*(pt1 > 30 && pt2 > 30)*(p4.M() > 120)'
p183
sg9
L1025L
ssg10
(dp184
g5
L553L
sg6
L524L
sg7
g183
sg9
L1025L
ssg13
(dp185
g5
L553L
sg6
L524L
sg7
g183
sg9
L1025L
ssg16
(dp186
g5
L553L
sg6
L524L
sg7
g183
sg9
L1025L
sssS'midPU'
p187
(dp188
g3
(dp189
g5
L125L
sg6
L113L
sg7
S'weight*(((nJets >= 2 && met > 150) || (nJets>=3 && met > 100)) && ( chargeProduct < 0 && pt1 > 20 && pt2 > 20 && abs(eta1)<2.4  && abs(eta2) < 2.4 && ((abs(eta1) < 1.4 || abs(eta1) > 1.6) && (abs(eta2) < 1.4 || abs(eta2) > 1.6)) && p4.M() > 20 && deltaR > 0.3 && !(runNr == 195649 && lumiSec == 49 && eventNr == 75858433) && !(runNr == 195749 && lumiSec == 108 && eventNr == 216906941)) && runNr < 99999999)*(nVertices >= 11 && nVertices < 16)*(p4.M()> 81 && p4.M() < 101)'
p190
sg9
L202L
ssg10
(dp191
g5
L214L
sg6
L169L
sg7
S'weight*(((nJets >= 2 && met > 150) || (nJets>=3 && met > 100)) && ( chargeProduct < 0 && pt1 > 20 && pt2 > 20 && abs(eta1)<2.4  && abs(eta2) < 2.4 && ((abs(eta1) < 1.4 || abs(eta1) > 1.6) && (abs(eta2) < 1.4 || abs(eta2) > 1.6)) && p4.M() > 20 && deltaR > 0.3 && !(runNr == 195649 && lumiSec == 49 && eventNr == 75858433) && !(runNr == 195749 && lumiSec == 108 && eventNr == 216906941)) && runNr < 99999999)*(nVertices >= 11 && nVertices < 16)*(p4.M()> 20 && p4.M() < 70)'
p192
sg9
L316L
ssg13
(dp193
g5
L230L
sg6
L206L
sg7
S'weight*(((nJets >= 2 && met > 150) || (nJets>=3 && met > 100)) && ( chargeProduct < 0 && pt1 > 20 && pt2 > 20 && abs(eta1)<2.4  && abs(eta2) < 2.4 && ((abs(eta1) < 1.4 || abs(eta1) > 1.6) && (abs(eta2) < 1.4 || abs(eta2) > 1.6)) && p4.M() > 20 && deltaR > 0.3 && !(runNr == 195649 && lumiSec == 49 && eventNr == 75858433) && !(runNr == 195749 && lumiSec == 108 && eventNr == 216906941)) && runNr < 99999999)*(nVertices >= 11 && nVertices < 16)*(p4.M() > 120)'
p194
sg9
L423L
ssg16
(dp195
g5
L718L
sg6
L595L
sg7
S'weight*(((nJets >= 2 && met > 150) || (nJets>=3 && met > 100)) && ( chargeProduct < 0 && pt1 > 20 && pt2 > 20 && abs(eta1)<2.4  && abs(eta2) < 2.4 && ((abs(eta1) < 1.4 || abs(eta1) > 1.6) && (abs(eta2) < 1.4 || abs(eta2) > 1.6)) && p4.M() > 20 && deltaR > 0.3 && !(runNr == 195649 && lumiSec == 49 && eventNr == 75858433) && !(runNr == 195749 && lumiSec == 108 && eventNr == 216906941)) && runNr < 99999999)*(nVertices >= 11 && nVertices < 16)*(p4.M() > 20)'
p196
sg9
L1172L
sss.