(dp0
S'OneBTags'
p1
(dp2
S'zMass'
p3
(dp4
S'MM'
p5
L41L
sS'EE'
p6
L32L
sS'cut'
p7
S'weight*(((nJets >= 2 && met > 150) || (nJets>=3 && met > 100)) &&  1.6 <= TMath::Max(abs(eta1),abs(eta2)) && ( chargeProduct < 0 && pt1 > 20 && pt2 > 20 && abs(eta1)<2.4  && abs(eta2) < 2.4 && ((abs(eta1) < 1.4 || abs(eta1) > 1.6) && (abs(eta2) < 1.4 || abs(eta2) > 1.6)) && p4.M() > 20 && deltaR > 0.3 && !(runNr == 195649 && lumiSec == 49 && eventNr == 75858433) && !(runNr == 195749 && lumiSec == 108 && eventNr == 216906941)) && runNr < 99999999)*(nBJets == 1)*(p4.M()> 81 && p4.M() < 101)'
p8
sS'EM'
p9
L56L
ssS'edgeMass'
p10
(dp11
g5
L36L
sg6
L20L
sg7
S'weight*(((nJets >= 2 && met > 150) || (nJets>=3 && met > 100)) &&  1.6 <= TMath::Max(abs(eta1),abs(eta2)) && ( chargeProduct < 0 && pt1 > 20 && pt2 > 20 && abs(eta1)<2.4  && abs(eta2) < 2.4 && ((abs(eta1) < 1.4 || abs(eta1) > 1.6) && (abs(eta2) < 1.4 || abs(eta2) > 1.6)) && p4.M() > 20 && deltaR > 0.3 && !(runNr == 195649 && lumiSec == 49 && eventNr == 75858433) && !(runNr == 195749 && lumiSec == 108 && eventNr == 216906941)) && runNr < 99999999)*(nBJets == 1)*(p4.M()> 20 && p4.M() < 70)'
p12
sg9
L50L
ssS'highMass'
p13
(dp14
g5
L89L
sg6
L86L
sg7
S'weight*(((nJets >= 2 && met > 150) || (nJets>=3 && met > 100)) &&  1.6 <= TMath::Max(abs(eta1),abs(eta2)) && ( chargeProduct < 0 && pt1 > 20 && pt2 > 20 && abs(eta1)<2.4  && abs(eta2) < 2.4 && ((abs(eta1) < 1.4 || abs(eta1) > 1.6) && (abs(eta2) < 1.4 || abs(eta2) > 1.6)) && p4.M() > 20 && deltaR > 0.3 && !(runNr == 195649 && lumiSec == 49 && eventNr == 75858433) && !(runNr == 195749 && lumiSec == 108 && eventNr == 216906941)) && runNr < 99999999)*(nBJets == 1)*(p4.M() > 120)'
p15
sg9
L180L
ssS'fullMassRange'
p16
(dp17
g5
L207L
sg6
L172L
sg7
S'weight*(((nJets >= 2 && met > 150) || (nJets>=3 && met > 100)) &&  1.6 <= TMath::Max(abs(eta1),abs(eta2)) && ( chargeProduct < 0 && pt1 > 20 && pt2 > 20 && abs(eta1)<2.4  && abs(eta2) < 2.4 && ((abs(eta1) < 1.4 || abs(eta1) > 1.6) && (abs(eta2) < 1.4 || abs(eta2) > 1.6)) && p4.M() > 20 && deltaR > 0.3 && !(runNr == 195649 && lumiSec == 49 && eventNr == 75858433) && !(runNr == 195749 && lumiSec == 108 && eventNr == 216906941)) && runNr < 99999999)*(nBJets == 1)*(p4.M() > 20)'
p18
sg9
L360L
sssS'ht100to300'
p19
(dp20
g3
(dp21
g5
L50L
sg6
L35L
sg7
S'weight*(((nJets >= 2 && met > 150) || (nJets>=3 && met > 100)) &&  1.6 <= TMath::Max(abs(eta1),abs(eta2)) && ( chargeProduct < 0 && pt1 > 20 && pt2 > 20 && abs(eta1)<2.4  && abs(eta2) < 2.4 && ((abs(eta1) < 1.4 || abs(eta1) > 1.6) && (abs(eta2) < 1.4 || abs(eta2) > 1.6)) && p4.M() > 20 && deltaR > 0.3 && !(runNr == 195649 && lumiSec == 49 && eventNr == 75858433) && !(runNr == 195749 && lumiSec == 108 && eventNr == 216906941)) && runNr < 99999999)*(ht > 100 && ht < 300)*(p4.M()> 81 && p4.M() < 101)'
p22
sg9
L84L
ssg10
(dp23
g5
L55L
sg6
L28L
sg7
S'weight*(((nJets >= 2 && met > 150) || (nJets>=3 && met > 100)) &&  1.6 <= TMath::Max(abs(eta1),abs(eta2)) && ( chargeProduct < 0 && pt1 > 20 && pt2 > 20 && abs(eta1)<2.4  && abs(eta2) < 2.4 && ((abs(eta1) < 1.4 || abs(eta1) > 1.6) && (abs(eta2) < 1.4 || abs(eta2) > 1.6)) && p4.M() > 20 && deltaR > 0.3 && !(runNr == 195649 && lumiSec == 49 && eventNr == 75858433) && !(runNr == 195749 && lumiSec == 108 && eventNr == 216906941)) && runNr < 99999999)*(ht > 100 && ht < 300)*(p4.M()> 20 && p4.M() < 70)'
p24
sg9
L73L
ssg13
(dp25
g5
L101L
sg6
L105L
sg7
S'weight*(((nJets >= 2 && met > 150) || (nJets>=3 && met > 100)) &&  1.6 <= TMath::Max(abs(eta1),abs(eta2)) && ( chargeProduct < 0 && pt1 > 20 && pt2 > 20 && abs(eta1)<2.4  && abs(eta2) < 2.4 && ((abs(eta1) < 1.4 || abs(eta1) > 1.6) && (abs(eta2) < 1.4 || abs(eta2) > 1.6)) && p4.M() > 20 && deltaR > 0.3 && !(runNr == 195649 && lumiSec == 49 && eventNr == 75858433) && !(runNr == 195749 && lumiSec == 108 && eventNr == 216906941)) && runNr < 99999999)*(ht > 100 && ht < 300)*(p4.M() > 120)'
p26
sg9
L235L
ssg16
(dp27
g5
L269L
sg6
L210L
sg7
S'weight*(((nJets >= 2 && met > 150) || (nJets>=3 && met > 100)) &&  1.6 <= TMath::Max(abs(eta1),abs(eta2)) && ( chargeProduct < 0 && pt1 > 20 && pt2 > 20 && abs(eta1)<2.4  && abs(eta2) < 2.4 && ((abs(eta1) < 1.4 || abs(eta1) > 1.6) && (abs(eta2) < 1.4 || abs(eta2) > 1.6)) && p4.M() > 20 && deltaR > 0.3 && !(runNr == 195649 && lumiSec == 49 && eventNr == 75858433) && !(runNr == 195749 && lumiSec == 108 && eventNr == 216906941)) && runNr < 99999999)*(ht > 100 && ht < 300)*(p4.M() > 20)'
p28
sg9
L500L
sssS'geOneBTags'
p29
(dp30
g3
(dp31
g5
L62L
sg6
L49L
sg7
S'weight*(((nJets >= 2 && met > 150) || (nJets>=3 && met > 100)) &&  1.6 <= TMath::Max(abs(eta1),abs(eta2)) && ( chargeProduct < 0 && pt1 > 20 && pt2 > 20 && abs(eta1)<2.4  && abs(eta2) < 2.4 && ((abs(eta1) < 1.4 || abs(eta1) > 1.6) && (abs(eta2) < 1.4 || abs(eta2) > 1.6)) && p4.M() > 20 && deltaR > 0.3 && !(runNr == 195649 && lumiSec == 49 && eventNr == 75858433) && !(runNr == 195749 && lumiSec == 108 && eventNr == 216906941)) && runNr < 99999999)*(nBJets >= 1)*(p4.M()> 81 && p4.M() < 101)'
p32
sg9
L100L
ssg10
(dp33
g5
L66L
sg6
L39L
sg7
S'weight*(((nJets >= 2 && met > 150) || (nJets>=3 && met > 100)) &&  1.6 <= TMath::Max(abs(eta1),abs(eta2)) && ( chargeProduct < 0 && pt1 > 20 && pt2 > 20 && abs(eta1)<2.4  && abs(eta2) < 2.4 && ((abs(eta1) < 1.4 || abs(eta1) > 1.6) && (abs(eta2) < 1.4 || abs(eta2) > 1.6)) && p4.M() > 20 && deltaR > 0.3 && !(runNr == 195649 && lumiSec == 49 && eventNr == 75858433) && !(runNr == 195749 && lumiSec == 108 && eventNr == 216906941)) && runNr < 99999999)*(nBJets >= 1)*(p4.M()> 20 && p4.M() < 70)'
p34
sg9
L88L
ssg13
(dp35
g5
L145L
sg6
L157L
sg7
S'weight*(((nJets >= 2 && met > 150) || (nJets>=3 && met > 100)) &&  1.6 <= TMath::Max(abs(eta1),abs(eta2)) && ( chargeProduct < 0 && pt1 > 20 && pt2 > 20 && abs(eta1)<2.4  && abs(eta2) < 2.4 && ((abs(eta1) < 1.4 || abs(eta1) > 1.6) && (abs(eta2) < 1.4 || abs(eta2) > 1.6)) && p4.M() > 20 && deltaR > 0.3 && !(runNr == 195649 && lumiSec == 49 && eventNr == 75858433) && !(runNr == 195749 && lumiSec == 108 && eventNr == 216906941)) && runNr < 99999999)*(nBJets >= 1)*(p4.M() > 120)'
p36
sg9
L294L
ssg16
(dp37
g5
L350L
sg6
L297L
sg7
S'weight*(((nJets >= 2 && met > 150) || (nJets>=3 && met > 100)) &&  1.6 <= TMath::Max(abs(eta1),abs(eta2)) && ( chargeProduct < 0 && pt1 > 20 && pt2 > 20 && abs(eta1)<2.4  && abs(eta2) < 2.4 && ((abs(eta1) < 1.4 || abs(eta1) > 1.6) && (abs(eta2) < 1.4 || abs(eta2) > 1.6)) && p4.M() > 20 && deltaR > 0.3 && !(runNr == 195649 && lumiSec == 49 && eventNr == 75858433) && !(runNr == 195749 && lumiSec == 108 && eventNr == 216906941)) && runNr < 99999999)*(nBJets >= 1)*(p4.M() > 20)'
p38
sg9
L610L
sssS'lowPU'
p39
(dp40
g3
(dp41
g5
L20L
sg6
L15L
sg7
S'weight*(((nJets >= 2 && met > 150) || (nJets>=3 && met > 100)) &&  1.6 <= TMath::Max(abs(eta1),abs(eta2)) && ( chargeProduct < 0 && pt1 > 20 && pt2 > 20 && abs(eta1)<2.4  && abs(eta2) < 2.4 && ((abs(eta1) < 1.4 || abs(eta1) > 1.6) && (abs(eta2) < 1.4 || abs(eta2) > 1.6)) && p4.M() > 20 && deltaR > 0.3 && !(runNr == 195649 && lumiSec == 49 && eventNr == 75858433) && !(runNr == 195749 && lumiSec == 108 && eventNr == 216906941)) && runNr < 99999999)*(nVertices < 11)*(p4.M()> 81 && p4.M() < 101)'
p42
sg9
L24L
ssg10
(dp43
g5
L17L
sg6
L7L
sg7
S'weight*(((nJets >= 2 && met > 150) || (nJets>=3 && met > 100)) &&  1.6 <= TMath::Max(abs(eta1),abs(eta2)) && ( chargeProduct < 0 && pt1 > 20 && pt2 > 20 && abs(eta1)<2.4  && abs(eta2) < 2.4 && ((abs(eta1) < 1.4 || abs(eta1) > 1.6) && (abs(eta2) < 1.4 || abs(eta2) > 1.6)) && p4.M() > 20 && deltaR > 0.3 && !(runNr == 195649 && lumiSec == 49 && eventNr == 75858433) && !(runNr == 195749 && lumiSec == 108 && eventNr == 216906941)) && runNr < 99999999)*(nVertices < 11)*(p4.M()> 20 && p4.M() < 70)'
p44
sg9
L27L
ssg13
(dp45
g5
L29L
sg6
L53L
sg7
S'weight*(((nJets >= 2 && met > 150) || (nJets>=3 && met > 100)) &&  1.6 <= TMath::Max(abs(eta1),abs(eta2)) && ( chargeProduct < 0 && pt1 > 20 && pt2 > 20 && abs(eta1)<2.4  && abs(eta2) < 2.4 && ((abs(eta1) < 1.4 || abs(eta1) > 1.6) && (abs(eta2) < 1.4 || abs(eta2) > 1.6)) && p4.M() > 20 && deltaR > 0.3 && !(runNr == 195649 && lumiSec == 49 && eventNr == 75858433) && !(runNr == 195749 && lumiSec == 108 && eventNr == 216906941)) && runNr < 99999999)*(nVertices < 11)*(p4.M() > 120)'
p46
sg9
L98L
ssg16
(dp47
g5
L94L
sg6
L102L
sg7
S'weight*(((nJets >= 2 && met > 150) || (nJets>=3 && met > 100)) &&  1.6 <= TMath::Max(abs(eta1),abs(eta2)) && ( chargeProduct < 0 && pt1 > 20 && pt2 > 20 && abs(eta1)<2.4  && abs(eta2) < 2.4 && ((abs(eta1) < 1.4 || abs(eta1) > 1.6) && (abs(eta2) < 1.4 || abs(eta2) > 1.6)) && p4.M() > 20 && deltaR > 0.3 && !(runNr == 195649 && lumiSec == 49 && eventNr == 75858433) && !(runNr == 195749 && lumiSec == 108 && eventNr == 216906941)) && runNr < 99999999)*(nVertices < 11)*(p4.M() > 20)'
p48
sg9
L195L
sssS'default'
p49
(dp50
g3
(dp51
g5
L91L
sg6
L86L
sg7
S'weight*(((nJets >= 2 && met > 150) || (nJets>=3 && met > 100)) &&  1.6 <= TMath::Max(abs(eta1),abs(eta2)) && ( chargeProduct < 0 && pt1 > 20 && pt2 > 20 && abs(eta1)<2.4  && abs(eta2) < 2.4 && ((abs(eta1) < 1.4 || abs(eta1) > 1.6) && (abs(eta2) < 1.4 || abs(eta2) > 1.6)) && p4.M() > 20 && deltaR > 0.3 && !(runNr == 195649 && lumiSec == 49 && eventNr == 75858433) && !(runNr == 195749 && lumiSec == 108 && eventNr == 216906941)) && runNr < 99999999)*(p4.M()> 81 && p4.M() < 101)'
p52
sg9
L131L
ssg10
(dp53
g5
L101L
sg6
L53L
sg7
S'weight*(((nJets >= 2 && met > 150) || (nJets>=3 && met > 100)) &&  1.6 <= TMath::Max(abs(eta1),abs(eta2)) && ( chargeProduct < 0 && pt1 > 20 && pt2 > 20 && abs(eta1)<2.4  && abs(eta2) < 2.4 && ((abs(eta1) < 1.4 || abs(eta1) > 1.6) && (abs(eta2) < 1.4 || abs(eta2) > 1.6)) && p4.M() > 20 && deltaR > 0.3 && !(runNr == 195649 && lumiSec == 49 && eventNr == 75858433) && !(runNr == 195749 && lumiSec == 108 && eventNr == 216906941)) && runNr < 99999999)*(p4.M()> 20 && p4.M() < 70)'
p54
sg9
L138L
ssg13
(dp55
g5
L186L
sg6
L196L
sg7
S'weight*(((nJets >= 2 && met > 150) || (nJets>=3 && met > 100)) &&  1.6 <= TMath::Max(abs(eta1),abs(eta2)) && ( chargeProduct < 0 && pt1 > 20 && pt2 > 20 && abs(eta1)<2.4  && abs(eta2) < 2.4 && ((abs(eta1) < 1.4 || abs(eta1) > 1.6) && (abs(eta2) < 1.4 || abs(eta2) > 1.6)) && p4.M() > 20 && deltaR > 0.3 && !(runNr == 195649 && lumiSec == 49 && eventNr == 75858433) && !(runNr == 195749 && lumiSec == 108 && eventNr == 216906941)) && runNr < 99999999)*(p4.M() > 120)'
p56
sg9
L397L
ssg16
(dp57
g5
L480L
sg6
L409L
sg7
S'weight*(((nJets >= 2 && met > 150) || (nJets>=3 && met > 100)) &&  1.6 <= TMath::Max(abs(eta1),abs(eta2)) && ( chargeProduct < 0 && pt1 > 20 && pt2 > 20 && abs(eta1)<2.4  && abs(eta2) < 2.4 && ((abs(eta1) < 1.4 || abs(eta1) > 1.6) && (abs(eta2) < 1.4 || abs(eta2) > 1.6)) && p4.M() > 20 && deltaR > 0.3 && !(runNr == 195649 && lumiSec == 49 && eventNr == 75858433) && !(runNr == 195749 && lumiSec == 108 && eventNr == 216906941)) && runNr < 99999999)*(p4.M() > 20)'
p58
sg9
L846L
sssS'pt3020'
p59
(dp60
g3
(dp61
g5
L183L
sg6
L192L
sg7
S'weight*(((nJets >= 2 && met > 150) || (nJets>=3 && met > 100)) &&  1.6 <= TMath::Max(abs(eta1),abs(eta2)) && ( chargeProduct < 0 && pt1 > 20 && pt2 > 20 && abs(eta1)<2.4  && abs(eta2) < 2.4 && ((abs(eta1) < 1.4 || abs(eta1) > 1.6) && (abs(eta2) < 1.4 || abs(eta2) > 1.6)) && p4.M() > 20 && deltaR > 0.3 && !(runNr == 195649 && lumiSec == 49 && eventNr == 75858433) && !(runNr == 195749 && lumiSec == 108 && eventNr == 216906941)) && runNr < 99999999)*(((pt1 > 30 && pt2 > 20)||(pt1 > 20 && pt2 > 30)))*(p4.M() > 120)'
p62
sg9
L393L
ssg10
(dp63
g5
L183L
sg6
L192L
sg7
g62
sg9
L393L
ssg13
(dp64
g5
L183L
sg6
L192L
sg7
g62
sg9
L393L
ssg16
(dp65
g5
L183L
sg6
L192L
sg7
g62
sg9
L393L
sssS'ht300'
p66
(dp67
g3
(dp68
g5
L41L
sg6
L50L
sg7
S'weight*(((nJets >= 2 && met > 150) || (nJets>=3 && met > 100)) &&  1.6 <= TMath::Max(abs(eta1),abs(eta2)) && ( chargeProduct < 0 && pt1 > 20 && pt2 > 20 && abs(eta1)<2.4  && abs(eta2) < 2.4 && ((abs(eta1) < 1.4 || abs(eta1) > 1.6) && (abs(eta2) < 1.4 || abs(eta2) > 1.6)) && p4.M() > 20 && deltaR > 0.3 && !(runNr == 195649 && lumiSec == 49 && eventNr == 75858433) && !(runNr == 195749 && lumiSec == 108 && eventNr == 216906941)) && runNr < 99999999)*(ht > 300)*(p4.M()> 81 && p4.M() < 101)'
p69
sg9
L47L
ssg10
(dp70
g5
L46L
sg6
L25L
sg7
S'weight*(((nJets >= 2 && met > 150) || (nJets>=3 && met > 100)) &&  1.6 <= TMath::Max(abs(eta1),abs(eta2)) && ( chargeProduct < 0 && pt1 > 20 && pt2 > 20 && abs(eta1)<2.4  && abs(eta2) < 2.4 && ((abs(eta1) < 1.4 || abs(eta1) > 1.6) && (abs(eta2) < 1.4 || abs(eta2) > 1.6)) && p4.M() > 20 && deltaR > 0.3 && !(runNr == 195649 && lumiSec == 49 && eventNr == 75858433) && !(runNr == 195749 && lumiSec == 108 && eventNr == 216906941)) && runNr < 99999999)*(ht > 300)*(p4.M()> 20 && p4.M() < 70)'
p71
sg9
L65L
ssg13
(dp72
g5
L85L
sg6
L91L
sg7
S'weight*(((nJets >= 2 && met > 150) || (nJets>=3 && met > 100)) &&  1.6 <= TMath::Max(abs(eta1),abs(eta2)) && ( chargeProduct < 0 && pt1 > 20 && pt2 > 20 && abs(eta1)<2.4  && abs(eta2) < 2.4 && ((abs(eta1) < 1.4 || abs(eta1) > 1.6) && (abs(eta2) < 1.4 || abs(eta2) > 1.6)) && p4.M() > 20 && deltaR > 0.3 && !(runNr == 195649 && lumiSec == 49 && eventNr == 75858433) && !(runNr == 195749 && lumiSec == 108 && eventNr == 216906941)) && runNr < 99999999)*(ht > 300)*(p4.M() > 120)'
p73
sg9
L160L
ssg16
(dp74
g5
L211L
sg6
L198L
sg7
S'weight*(((nJets >= 2 && met > 150) || (nJets>=3 && met > 100)) &&  1.6 <= TMath::Max(abs(eta1),abs(eta2)) && ( chargeProduct < 0 && pt1 > 20 && pt2 > 20 && abs(eta1)<2.4  && abs(eta2) < 2.4 && ((abs(eta1) < 1.4 || abs(eta1) > 1.6) && (abs(eta2) < 1.4 || abs(eta2) > 1.6)) && p4.M() > 20 && deltaR > 0.3 && !(runNr == 195649 && lumiSec == 49 && eventNr == 75858433) && !(runNr == 195749 && lumiSec == 108 && eventNr == 216906941)) && runNr < 99999999)*(ht > 300)*(p4.M() > 20)'
p75
sg9
L343L
sssS'highPU'
p76
(dp77
g3
(dp78
g5
L35L
sg6
L41L
sg7
S'weight*(((nJets >= 2 && met > 150) || (nJets>=3 && met > 100)) &&  1.6 <= TMath::Max(abs(eta1),abs(eta2)) && ( chargeProduct < 0 && pt1 > 20 && pt2 > 20 && abs(eta1)<2.4  && abs(eta2) < 2.4 && ((abs(eta1) < 1.4 || abs(eta1) > 1.6) && (abs(eta2) < 1.4 || abs(eta2) > 1.6)) && p4.M() > 20 && deltaR > 0.3 && !(runNr == 195649 && lumiSec == 49 && eventNr == 75858433) && !(runNr == 195749 && lumiSec == 108 && eventNr == 216906941)) && runNr < 99999999)*(nVertices >= 16)*(p4.M()> 81 && p4.M() < 101)'
p79
sg9
L54L
ssg10
(dp80
g5
L45L
sg6
L24L
sg7
S'weight*(((nJets >= 2 && met > 150) || (nJets>=3 && met > 100)) &&  1.6 <= TMath::Max(abs(eta1),abs(eta2)) && ( chargeProduct < 0 && pt1 > 20 && pt2 > 20 && abs(eta1)<2.4  && abs(eta2) < 2.4 && ((abs(eta1) < 1.4 || abs(eta1) > 1.6) && (abs(eta2) < 1.4 || abs(eta2) > 1.6)) && p4.M() > 20 && deltaR > 0.3 && !(runNr == 195649 && lumiSec == 49 && eventNr == 75858433) && !(runNr == 195749 && lumiSec == 108 && eventNr == 216906941)) && runNr < 99999999)*(nVertices >= 16)*(p4.M()> 20 && p4.M() < 70)'
p81
sg9
L60L
ssg13
(dp82
g5
L80L
sg6
L83L
sg7
S'weight*(((nJets >= 2 && met > 150) || (nJets>=3 && met > 100)) &&  1.6 <= TMath::Max(abs(eta1),abs(eta2)) && ( chargeProduct < 0 && pt1 > 20 && pt2 > 20 && abs(eta1)<2.4  && abs(eta2) < 2.4 && ((abs(eta1) < 1.4 || abs(eta1) > 1.6) && (abs(eta2) < 1.4 || abs(eta2) > 1.6)) && p4.M() > 20 && deltaR > 0.3 && !(runNr == 195649 && lumiSec == 49 && eventNr == 75858433) && !(runNr == 195749 && lumiSec == 108 && eventNr == 216906941)) && runNr < 99999999)*(nVertices >= 16)*(p4.M() > 120)'
p83
sg9
L151L
ssg16
(dp84
g5
L189L
sg6
L173L
sg7
S'weight*(((nJets >= 2 && met > 150) || (nJets>=3 && met > 100)) &&  1.6 <= TMath::Max(abs(eta1),abs(eta2)) && ( chargeProduct < 0 && pt1 > 20 && pt2 > 20 && abs(eta1)<2.4  && abs(eta2) < 2.4 && ((abs(eta1) < 1.4 || abs(eta1) > 1.6) && (abs(eta2) < 1.4 || abs(eta2) > 1.6)) && p4.M() > 20 && deltaR > 0.3 && !(runNr == 195649 && lumiSec == 49 && eventNr == 75858433) && !(runNr == 195749 && lumiSec == 108 && eventNr == 216906941)) && runNr < 99999999)*(nVertices >= 16)*(p4.M() > 20)'
p85
sg9
L338L
sssS'tcMet'
p86
(dp87
g3
(dp88
g5
L114L
sg6
L70L
sg7
S'weight*(((nJets >= 2 && tcMet > 150) || (nJets>=3 && tcMet > 100)) &&  1.6 <= TMath::Max(abs(eta1),abs(eta2)) && ( chargeProduct < 0 && pt1 > 20 && pt2 > 20 && abs(eta1)<2.4  && abs(eta2) < 2.4 && ((abs(eta1) < 1.4 || abs(eta1) > 1.6) && (abs(eta2) < 1.4 || abs(eta2) > 1.6)) && p4.M() > 20 && deltaR > 0.3 && !(runNr == 195649 && lumiSec == 49 && eventNr == 75858433) && !(runNr == 195749 && lumiSec == 108 && eventNr == 216906941)) && runNr < 99999999)*(p4.M()> 81 && p4.M() < 101)'
p89
sg9
L111L
ssg10
(dp90
g5
L93L
sg6
L52L
sg7
S'weight*(((nJets >= 2 && tcMet > 150) || (nJets>=3 && tcMet > 100)) &&  1.6 <= TMath::Max(abs(eta1),abs(eta2)) && ( chargeProduct < 0 && pt1 > 20 && pt2 > 20 && abs(eta1)<2.4  && abs(eta2) < 2.4 && ((abs(eta1) < 1.4 || abs(eta1) > 1.6) && (abs(eta2) < 1.4 || abs(eta2) > 1.6)) && p4.M() > 20 && deltaR > 0.3 && !(runNr == 195649 && lumiSec == 49 && eventNr == 75858433) && !(runNr == 195749 && lumiSec == 108 && eventNr == 216906941)) && runNr < 99999999)*(p4.M()> 20 && p4.M() < 70)'
p91
sg9
L134L
ssg13
(dp92
g5
L196L
sg6
L190L
sg7
S'weight*(((nJets >= 2 && tcMet > 150) || (nJets>=3 && tcMet > 100)) &&  1.6 <= TMath::Max(abs(eta1),abs(eta2)) && ( chargeProduct < 0 && pt1 > 20 && pt2 > 20 && abs(eta1)<2.4  && abs(eta2) < 2.4 && ((abs(eta1) < 1.4 || abs(eta1) > 1.6) && (abs(eta2) < 1.4 || abs(eta2) > 1.6)) && p4.M() > 20 && deltaR > 0.3 && !(runNr == 195649 && lumiSec == 49 && eventNr == 75858433) && !(runNr == 195749 && lumiSec == 108 && eventNr == 216906941)) && runNr < 99999999)*(p4.M() > 120)'
p93
sg9
L377L
ssg16
(dp94
g5
L503L
sg6
L378L
sg7
S'weight*(((nJets >= 2 && tcMet > 150) || (nJets>=3 && tcMet > 100)) &&  1.6 <= TMath::Max(abs(eta1),abs(eta2)) && ( chargeProduct < 0 && pt1 > 20 && pt2 > 20 && abs(eta1)<2.4  && abs(eta2) < 2.4 && ((abs(eta1) < 1.4 || abs(eta1) > 1.6) && (abs(eta2) < 1.4 || abs(eta2) > 1.6)) && p4.M() > 20 && deltaR > 0.3 && !(runNr == 195649 && lumiSec == 49 && eventNr == 75858433) && !(runNr == 195749 && lumiSec == 108 && eventNr == 216906941)) && runNr < 99999999)*(p4.M() > 20)'
p95
sg9
L774L
sssS'geTwoBTags'
p96
(dp97
g3
(dp98
g5
L21L
sg6
L17L
sg7
S'weight*(((nJets >= 2 && met > 150) || (nJets>=3 && met > 100)) &&  1.6 <= TMath::Max(abs(eta1),abs(eta2)) && ( chargeProduct < 0 && pt1 > 20 && pt2 > 20 && abs(eta1)<2.4  && abs(eta2) < 2.4 && ((abs(eta1) < 1.4 || abs(eta1) > 1.6) && (abs(eta2) < 1.4 || abs(eta2) > 1.6)) && p4.M() > 20 && deltaR > 0.3 && !(runNr == 195649 && lumiSec == 49 && eventNr == 75858433) && !(runNr == 195749 && lumiSec == 108 && eventNr == 216906941)) && runNr < 99999999)*(nBJets >= 2)*(p4.M()> 81 && p4.M() < 101)'
p99
sg9
L44L
ssg10
(dp100
g5
L30L
sg6
L19L
sg7
S'weight*(((nJets >= 2 && met > 150) || (nJets>=3 && met > 100)) &&  1.6 <= TMath::Max(abs(eta1),abs(eta2)) && ( chargeProduct < 0 && pt1 > 20 && pt2 > 20 && abs(eta1)<2.4  && abs(eta2) < 2.4 && ((abs(eta1) < 1.4 || abs(eta1) > 1.6) && (abs(eta2) < 1.4 || abs(eta2) > 1.6)) && p4.M() > 20 && deltaR > 0.3 && !(runNr == 195649 && lumiSec == 49 && eventNr == 75858433) && !(runNr == 195749 && lumiSec == 108 && eventNr == 216906941)) && runNr < 99999999)*(nBJets >= 2)*(p4.M()> 20 && p4.M() < 70)'
p101
sg9
L38L
ssg13
(dp102
g5
L56L
sg6
L71L
sg7
S'weight*(((nJets >= 2 && met > 150) || (nJets>=3 && met > 100)) &&  1.6 <= TMath::Max(abs(eta1),abs(eta2)) && ( chargeProduct < 0 && pt1 > 20 && pt2 > 20 && abs(eta1)<2.4  && abs(eta2) < 2.4 && ((abs(eta1) < 1.4 || abs(eta1) > 1.6) && (abs(eta2) < 1.4 || abs(eta2) > 1.6)) && p4.M() > 20 && deltaR > 0.3 && !(runNr == 195649 && lumiSec == 49 && eventNr == 75858433) && !(runNr == 195749 && lumiSec == 108 && eventNr == 216906941)) && runNr < 99999999)*(nBJets >= 2)*(p4.M() > 120)'
p103
sg9
L114L
ssg16
(dp104
g5
L143L
sg6
L125L
sg7
S'weight*(((nJets >= 2 && met > 150) || (nJets>=3 && met > 100)) &&  1.6 <= TMath::Max(abs(eta1),abs(eta2)) && ( chargeProduct < 0 && pt1 > 20 && pt2 > 20 && abs(eta1)<2.4  && abs(eta2) < 2.4 && ((abs(eta1) < 1.4 || abs(eta1) > 1.6) && (abs(eta2) < 1.4 || abs(eta2) > 1.6)) && p4.M() > 20 && deltaR > 0.3 && !(runNr == 195649 && lumiSec == 49 && eventNr == 75858433) && !(runNr == 195749 && lumiSec == 108 && eventNr == 216906941)) && runNr < 99999999)*(nBJets >= 2)*(p4.M() > 20)'
p105
sg9
L250L
sssS'TwoBTags'
p106
(dp107
g3
(dp108
g5
L20L
sg6
L15L
sg7
S'weight*(((nJets >= 2 && met > 150) || (nJets>=3 && met > 100)) &&  1.6 <= TMath::Max(abs(eta1),abs(eta2)) && ( chargeProduct < 0 && pt1 > 20 && pt2 > 20 && abs(eta1)<2.4  && abs(eta2) < 2.4 && ((abs(eta1) < 1.4 || abs(eta1) > 1.6) && (abs(eta2) < 1.4 || abs(eta2) > 1.6)) && p4.M() > 20 && deltaR > 0.3 && !(runNr == 195649 && lumiSec == 49 && eventNr == 75858433) && !(runNr == 195749 && lumiSec == 108 && eventNr == 216906941)) && runNr < 99999999)*(nBJets == 2)*(p4.M()> 81 && p4.M() < 101)'
p109
sg9
L42L
ssg10
(dp110
g5
L28L
sg6
L18L
sg7
S'weight*(((nJets >= 2 && met > 150) || (nJets>=3 && met > 100)) &&  1.6 <= TMath::Max(abs(eta1),abs(eta2)) && ( chargeProduct < 0 && pt1 > 20 && pt2 > 20 && abs(eta1)<2.4  && abs(eta2) < 2.4 && ((abs(eta1) < 1.4 || abs(eta1) > 1.6) && (abs(eta2) < 1.4 || abs(eta2) > 1.6)) && p4.M() > 20 && deltaR > 0.3 && !(runNr == 195649 && lumiSec == 49 && eventNr == 75858433) && !(runNr == 195749 && lumiSec == 108 && eventNr == 216906941)) && runNr < 99999999)*(nBJets == 2)*(p4.M()> 20 && p4.M() < 70)'
p111
sg9
L36L
ssg13
(dp112
g5
L52L
sg6
L68L
sg7
S'weight*(((nJets >= 2 && met > 150) || (nJets>=3 && met > 100)) &&  1.6 <= TMath::Max(abs(eta1),abs(eta2)) && ( chargeProduct < 0 && pt1 > 20 && pt2 > 20 && abs(eta1)<2.4  && abs(eta2) < 2.4 && ((abs(eta1) < 1.4 || abs(eta1) > 1.6) && (abs(eta2) < 1.4 || abs(eta2) > 1.6)) && p4.M() > 20 && deltaR > 0.3 && !(runNr == 195649 && lumiSec == 49 && eventNr == 75858433) && !(runNr == 195749 && lumiSec == 108 && eventNr == 216906941)) && runNr < 99999999)*(nBJets == 2)*(p4.M() > 120)'
p113
sg9
L105L
ssg16
(dp114
g5
L135L
sg6
L119L
sg7
S'weight*(((nJets >= 2 && met > 150) || (nJets>=3 && met > 100)) &&  1.6 <= TMath::Max(abs(eta1),abs(eta2)) && ( chargeProduct < 0 && pt1 > 20 && pt2 > 20 && abs(eta1)<2.4  && abs(eta2) < 2.4 && ((abs(eta1) < 1.4 || abs(eta1) > 1.6) && (abs(eta2) < 1.4 || abs(eta2) > 1.6)) && p4.M() > 20 && deltaR > 0.3 && !(runNr == 195649 && lumiSec == 49 && eventNr == 75858433) && !(runNr == 195749 && lumiSec == 108 && eventNr == 216906941)) && runNr < 99999999)*(nBJets == 2)*(p4.M() > 20)'
p115
sg9
L232L
sssS'pt3010'
p116
(dp117
g3
(dp118
g5
L183L
sg6
L192L
sg7
S'weight*(((nJets >= 2 && met > 150) || (nJets>=3 && met > 100)) &&  1.6 <= TMath::Max(abs(eta1),abs(eta2)) && ( chargeProduct < 0 && pt1 > 20 && pt2 > 20 && abs(eta1)<2.4  && abs(eta2) < 2.4 && ((abs(eta1) < 1.4 || abs(eta1) > 1.6) && (abs(eta2) < 1.4 || abs(eta2) > 1.6)) && p4.M() > 20 && deltaR > 0.3 && !(runNr == 195649 && lumiSec == 49 && eventNr == 75858433) && !(runNr == 195749 && lumiSec == 108 && eventNr == 216906941)) && runNr < 99999999)*(((pt1 > 30 && pt2 > 10)||(pt1 > 10 && pt2 > 30)))*(p4.M() > 120)'
p119
sg9
L393L
ssg10
(dp120
g5
L183L
sg6
L192L
sg7
g119
sg9
L393L
ssg13
(dp121
g5
L183L
sg6
L192L
sg7
g119
sg9
L393L
ssg16
(dp122
g5
L183L
sg6
L192L
sg7
g119
sg9
L393L
sssS'TightIso'
p123
(dp124
g3
(dp125
g5
L75L
sg6
L55L
sg7
S'weight*(((nJets >= 2 && met > 150) || (nJets>=3 && met > 100)) &&  1.6 <= TMath::Max(abs(eta1),abs(eta2)) && ( chargeProduct < 0 && pt1 > 20 && pt2 > 20 && abs(eta1)<2.4  && abs(eta2) < 2.4 && ((abs(eta1) < 1.4 || abs(eta1) > 1.6) && (abs(eta2) < 1.4 || abs(eta2) > 1.6)) && p4.M() > 20 && deltaR > 0.3 && !(runNr == 195649 && lumiSec == 49 && eventNr == 75858433) && !(runNr == 195749 && lumiSec == 108 && eventNr == 216906941)) && runNr < 99999999)*(id1 < 0.05 && id2 < 0.05)*(p4.M()> 81 && p4.M() < 101)'
p126
sg9
L98L
ssg10
(dp127
g5
L63L
sg6
L32L
sg7
S'weight*(((nJets >= 2 && met > 150) || (nJets>=3 && met > 100)) &&  1.6 <= TMath::Max(abs(eta1),abs(eta2)) && ( chargeProduct < 0 && pt1 > 20 && pt2 > 20 && abs(eta1)<2.4  && abs(eta2) < 2.4 && ((abs(eta1) < 1.4 || abs(eta1) > 1.6) && (abs(eta2) < 1.4 || abs(eta2) > 1.6)) && p4.M() > 20 && deltaR > 0.3 && !(runNr == 195649 && lumiSec == 49 && eventNr == 75858433) && !(runNr == 195749 && lumiSec == 108 && eventNr == 216906941)) && runNr < 99999999)*(id1 < 0.05 && id2 < 0.05)*(p4.M()> 20 && p4.M() < 70)'
p128
sg9
L95L
ssg13
(dp129
g5
L143L
sg6
L146L
sg7
S'weight*(((nJets >= 2 && met > 150) || (nJets>=3 && met > 100)) &&  1.6 <= TMath::Max(abs(eta1),abs(eta2)) && ( chargeProduct < 0 && pt1 > 20 && pt2 > 20 && abs(eta1)<2.4  && abs(eta2) < 2.4 && ((abs(eta1) < 1.4 || abs(eta1) > 1.6) && (abs(eta2) < 1.4 || abs(eta2) > 1.6)) && p4.M() > 20 && deltaR > 0.3 && !(runNr == 195649 && lumiSec == 49 && eventNr == 75858433) && !(runNr == 195749 && lumiSec == 108 && eventNr == 216906941)) && runNr < 99999999)*(id1 < 0.05 && id2 < 0.05)*(p4.M() > 120)'
p130
sg9
L309L
ssg16
(dp131
g5
L360L
sg6
L281L
sg7
S'weight*(((nJets >= 2 && met > 150) || (nJets>=3 && met > 100)) &&  1.6 <= TMath::Max(abs(eta1),abs(eta2)) && ( chargeProduct < 0 && pt1 > 20 && pt2 > 20 && abs(eta1)<2.4  && abs(eta2) < 2.4 && ((abs(eta1) < 1.4 || abs(eta1) > 1.6) && (abs(eta2) < 1.4 || abs(eta2) > 1.6)) && p4.M() > 20 && deltaR > 0.3 && !(runNr == 195649 && lumiSec == 49 && eventNr == 75858433) && !(runNr == 195749 && lumiSec == 108 && eventNr == 216906941)) && runNr < 99999999)*(id1 < 0.05 && id2 < 0.05)*(p4.M() > 20)'
p132
sg9
L635L
sssS'noBTags'
p133
(dp134
g3
(dp135
g5
L29L
sg6
L37L
sg7
S'weight*(((nJets >= 2 && met > 150) || (nJets>=3 && met > 100)) &&  1.6 <= TMath::Max(abs(eta1),abs(eta2)) && ( chargeProduct < 0 && pt1 > 20 && pt2 > 20 && abs(eta1)<2.4  && abs(eta2) < 2.4 && ((abs(eta1) < 1.4 || abs(eta1) > 1.6) && (abs(eta2) < 1.4 || abs(eta2) > 1.6)) && p4.M() > 20 && deltaR > 0.3 && !(runNr == 195649 && lumiSec == 49 && eventNr == 75858433) && !(runNr == 195749 && lumiSec == 108 && eventNr == 216906941)) && runNr < 99999999)*(nBJets == 0)*(p4.M()> 81 && p4.M() < 101)'
p136
sg9
L31L
ssg10
(dp137
g5
L35L
sg6
L14L
sg7
S'weight*(((nJets >= 2 && met > 150) || (nJets>=3 && met > 100)) &&  1.6 <= TMath::Max(abs(eta1),abs(eta2)) && ( chargeProduct < 0 && pt1 > 20 && pt2 > 20 && abs(eta1)<2.4  && abs(eta2) < 2.4 && ((abs(eta1) < 1.4 || abs(eta1) > 1.6) && (abs(eta2) < 1.4 || abs(eta2) > 1.6)) && p4.M() > 20 && deltaR > 0.3 && !(runNr == 195649 && lumiSec == 49 && eventNr == 75858433) && !(runNr == 195749 && lumiSec == 108 && eventNr == 216906941)) && runNr < 99999999)*(nBJets == 0)*(p4.M()> 20 && p4.M() < 70)'
p138
sg9
L50L
ssg13
(dp139
g5
L41L
sg6
L39L
sg7
S'weight*(((nJets >= 2 && met > 150) || (nJets>=3 && met > 100)) &&  1.6 <= TMath::Max(abs(eta1),abs(eta2)) && ( chargeProduct < 0 && pt1 > 20 && pt2 > 20 && abs(eta1)<2.4  && abs(eta2) < 2.4 && ((abs(eta1) < 1.4 || abs(eta1) > 1.6) && (abs(eta2) < 1.4 || abs(eta2) > 1.6)) && p4.M() > 20 && deltaR > 0.3 && !(runNr == 195649 && lumiSec == 49 && eventNr == 75858433) && !(runNr == 195749 && lumiSec == 108 && eventNr == 216906941)) && runNr < 99999999)*(nBJets == 0)*(p4.M() > 120)'
p140
sg9
L103L
ssg16
(dp141
g5
L130L
sg6
L112L
sg7
S'weight*(((nJets >= 2 && met > 150) || (nJets>=3 && met > 100)) &&  1.6 <= TMath::Max(abs(eta1),abs(eta2)) && ( chargeProduct < 0 && pt1 > 20 && pt2 > 20 && abs(eta1)<2.4  && abs(eta2) < 2.4 && ((abs(eta1) < 1.4 || abs(eta1) > 1.6) && (abs(eta2) < 1.4 || abs(eta2) > 1.6)) && p4.M() > 20 && deltaR > 0.3 && !(runNr == 195649 && lumiSec == 49 && eventNr == 75858433) && !(runNr == 195749 && lumiSec == 108 && eventNr == 216906941)) && runNr < 99999999)*(nBJets == 0)*(p4.M() > 20)'
p142
sg9
L236L
sssS'caloMet'
p143
(dp144
g3
(dp145
g5
L114L
sg6
L70L
sg7
S'weight*(((nJets >= 2 && caloMet > 150) || (nJets>=3 && caloMet > 100)) &&  1.6 <= TMath::Max(abs(eta1),abs(eta2)) && ( chargeProduct < 0 && pt1 > 20 && pt2 > 20 && abs(eta1)<2.4  && abs(eta2) < 2.4 && ((abs(eta1) < 1.4 || abs(eta1) > 1.6) && (abs(eta2) < 1.4 || abs(eta2) > 1.6)) && p4.M() > 20 && deltaR > 0.3 && !(runNr == 195649 && lumiSec == 49 && eventNr == 75858433) && !(runNr == 195749 && lumiSec == 108 && eventNr == 216906941)) && runNr < 99999999)*(p4.M()> 81 && p4.M() < 101)'
p146
sg9
L111L
ssg10
(dp147
g5
L93L
sg6
L52L
sg7
S'weight*(((nJets >= 2 && caloMet > 150) || (nJets>=3 && caloMet > 100)) &&  1.6 <= TMath::Max(abs(eta1),abs(eta2)) && ( chargeProduct < 0 && pt1 > 20 && pt2 > 20 && abs(eta1)<2.4  && abs(eta2) < 2.4 && ((abs(eta1) < 1.4 || abs(eta1) > 1.6) && (abs(eta2) < 1.4 || abs(eta2) > 1.6)) && p4.M() > 20 && deltaR > 0.3 && !(runNr == 195649 && lumiSec == 49 && eventNr == 75858433) && !(runNr == 195749 && lumiSec == 108 && eventNr == 216906941)) && runNr < 99999999)*(p4.M()> 20 && p4.M() < 70)'
p148
sg9
L134L
ssg13
(dp149
g5
L196L
sg6
L190L
sg7
S'weight*(((nJets >= 2 && caloMet > 150) || (nJets>=3 && caloMet > 100)) &&  1.6 <= TMath::Max(abs(eta1),abs(eta2)) && ( chargeProduct < 0 && pt1 > 20 && pt2 > 20 && abs(eta1)<2.4  && abs(eta2) < 2.4 && ((abs(eta1) < 1.4 || abs(eta1) > 1.6) && (abs(eta2) < 1.4 || abs(eta2) > 1.6)) && p4.M() > 20 && deltaR > 0.3 && !(runNr == 195649 && lumiSec == 49 && eventNr == 75858433) && !(runNr == 195749 && lumiSec == 108 && eventNr == 216906941)) && runNr < 99999999)*(p4.M() > 120)'
p150
sg9
L377L
ssg16
(dp151
g5
L503L
sg6
L378L
sg7
S'weight*(((nJets >= 2 && caloMet > 150) || (nJets>=3 && caloMet > 100)) &&  1.6 <= TMath::Max(abs(eta1),abs(eta2)) && ( chargeProduct < 0 && pt1 > 20 && pt2 > 20 && abs(eta1)<2.4  && abs(eta2) < 2.4 && ((abs(eta1) < 1.4 || abs(eta1) > 1.6) && (abs(eta2) < 1.4 || abs(eta2) > 1.6)) && p4.M() > 20 && deltaR > 0.3 && !(runNr == 195649 && lumiSec == 49 && eventNr == 75858433) && !(runNr == 195749 && lumiSec == 108 && eventNr == 216906941)) && runNr < 99999999)*(p4.M() > 20)'
p152
sg9
L774L
sssS'type1Met'
p153
(dp154
g3
(dp155
g5
L110L
sg6
L97L
sg7
S'weight*(((nJets >= 2 && type1Met > 150) || (nJets>=3 && type1Met > 100)) &&  1.6 <= TMath::Max(abs(eta1),abs(eta2)) && ( chargeProduct < 0 && pt1 > 20 && pt2 > 20 && abs(eta1)<2.4  && abs(eta2) < 2.4 && ((abs(eta1) < 1.4 || abs(eta1) > 1.6) && (abs(eta2) < 1.4 || abs(eta2) > 1.6)) && p4.M() > 20 && deltaR > 0.3 && !(runNr == 195649 && lumiSec == 49 && eventNr == 75858433) && !(runNr == 195749 && lumiSec == 108 && eventNr == 216906941)) && runNr < 99999999)*(p4.M()> 81 && p4.M() < 101)'
p156
sg9
L159L
ssg10
(dp157
g5
L123L
sg6
L70L
sg7
S'weight*(((nJets >= 2 && type1Met > 150) || (nJets>=3 && type1Met > 100)) &&  1.6 <= TMath::Max(abs(eta1),abs(eta2)) && ( chargeProduct < 0 && pt1 > 20 && pt2 > 20 && abs(eta1)<2.4  && abs(eta2) < 2.4 && ((abs(eta1) < 1.4 || abs(eta1) > 1.6) && (abs(eta2) < 1.4 || abs(eta2) > 1.6)) && p4.M() > 20 && deltaR > 0.3 && !(runNr == 195649 && lumiSec == 49 && eventNr == 75858433) && !(runNr == 195749 && lumiSec == 108 && eventNr == 216906941)) && runNr < 99999999)*(p4.M()> 20 && p4.M() < 70)'
p158
sg9
L183L
ssg13
(dp159
g5
L226L
sg6
L237L
sg7
S'weight*(((nJets >= 2 && type1Met > 150) || (nJets>=3 && type1Met > 100)) &&  1.6 <= TMath::Max(abs(eta1),abs(eta2)) && ( chargeProduct < 0 && pt1 > 20 && pt2 > 20 && abs(eta1)<2.4  && abs(eta2) < 2.4 && ((abs(eta1) < 1.4 || abs(eta1) > 1.6) && (abs(eta2) < 1.4 || abs(eta2) > 1.6)) && p4.M() > 20 && deltaR > 0.3 && !(runNr == 195649 && lumiSec == 49 && eventNr == 75858433) && !(runNr == 195749 && lumiSec == 108 && eventNr == 216906941)) && runNr < 99999999)*(p4.M() > 120)'
p160
sg9
L474L
ssg16
(dp161
g5
L584L
sg6
L493L
sg7
S'weight*(((nJets >= 2 && type1Met > 150) || (nJets>=3 && type1Met > 100)) &&  1.6 <= TMath::Max(abs(eta1),abs(eta2)) && ( chargeProduct < 0 && pt1 > 20 && pt2 > 20 && abs(eta1)<2.4  && abs(eta2) < 2.4 && ((abs(eta1) < 1.4 || abs(eta1) > 1.6) && (abs(eta2) < 1.4 || abs(eta2) > 1.6)) && p4.M() > 20 && deltaR > 0.3 && !(runNr == 195649 && lumiSec == 49 && eventNr == 75858433) && !(runNr == 195749 && lumiSec == 108 && eventNr == 216906941)) && runNr < 99999999)*(p4.M() > 20)'
p162
sg9
L1031L
sssS'mht'
p163
(dp164
g3
(dp165
g5
L301L
sg6
L207L
sg7
S'weight*(((nJets >= 2 && mht > 150) || (nJets>=3 && mht > 100)) &&  1.6 <= TMath::Max(abs(eta1),abs(eta2)) && ( chargeProduct < 0 && pt1 > 20 && pt2 > 20 && abs(eta1)<2.4  && abs(eta2) < 2.4 && ((abs(eta1) < 1.4 || abs(eta1) > 1.6) && (abs(eta2) < 1.4 || abs(eta2) > 1.6)) && p4.M() > 20 && deltaR > 0.3 && !(runNr == 195649 && lumiSec == 49 && eventNr == 75858433) && !(runNr == 195749 && lumiSec == 108 && eventNr == 216906941)) && runNr < 99999999)*(p4.M()> 81 && p4.M() < 101)'
p166
sg9
L157L
ssg10
(dp167
g5
L159L
sg6
L86L
sg7
S'weight*(((nJets >= 2 && mht > 150) || (nJets>=3 && mht > 100)) &&  1.6 <= TMath::Max(abs(eta1),abs(eta2)) && ( chargeProduct < 0 && pt1 > 20 && pt2 > 20 && abs(eta1)<2.4  && abs(eta2) < 2.4 && ((abs(eta1) < 1.4 || abs(eta1) > 1.6) && (abs(eta2) < 1.4 || abs(eta2) > 1.6)) && p4.M() > 20 && deltaR > 0.3 && !(runNr == 195649 && lumiSec == 49 && eventNr == 75858433) && !(runNr == 195749 && lumiSec == 108 && eventNr == 216906941)) && runNr < 99999999)*(p4.M()> 20 && p4.M() < 70)'
p168
sg9
L183L
ssg13
(dp169
g5
L269L
sg6
L237L
sg7
S'weight*(((nJets >= 2 && mht > 150) || (nJets>=3 && mht > 100)) &&  1.6 <= TMath::Max(abs(eta1),abs(eta2)) && ( chargeProduct < 0 && pt1 > 20 && pt2 > 20 && abs(eta1)<2.4  && abs(eta2) < 2.4 && ((abs(eta1) < 1.4 || abs(eta1) > 1.6) && (abs(eta2) < 1.4 || abs(eta2) > 1.6)) && p4.M() > 20 && deltaR > 0.3 && !(runNr == 195649 && lumiSec == 49 && eventNr == 75858433) && !(runNr == 195749 && lumiSec == 108 && eventNr == 216906941)) && runNr < 99999999)*(p4.M() > 120)'
p170
sg9
L506L
ssg16
(dp171
g5
L870L
sg6
L635L
sg7
S'weight*(((nJets >= 2 && mht > 150) || (nJets>=3 && mht > 100)) &&  1.6 <= TMath::Max(abs(eta1),abs(eta2)) && ( chargeProduct < 0 && pt1 > 20 && pt2 > 20 && abs(eta1)<2.4  && abs(eta2) < 2.4 && ((abs(eta1) < 1.4 || abs(eta1) > 1.6) && (abs(eta2) < 1.4 || abs(eta2) > 1.6)) && p4.M() > 20 && deltaR > 0.3 && !(runNr == 195649 && lumiSec == 49 && eventNr == 75858433) && !(runNr == 195749 && lumiSec == 108 && eventNr == 216906941)) && runNr < 99999999)*(p4.M() > 20)'
p172
sg9
L1050L
sssS'pt2010'
p173
(dp174
g3
(dp175
g5
L186L
sg6
L196L
sg7
S'weight*(((nJets >= 2 && met > 150) || (nJets>=3 && met > 100)) &&  1.6 <= TMath::Max(abs(eta1),abs(eta2)) && ( chargeProduct < 0 && pt1 > 20 && pt2 > 20 && abs(eta1)<2.4  && abs(eta2) < 2.4 && ((abs(eta1) < 1.4 || abs(eta1) > 1.6) && (abs(eta2) < 1.4 || abs(eta2) > 1.6)) && p4.M() > 20 && deltaR > 0.3 && !(runNr == 195649 && lumiSec == 49 && eventNr == 75858433) && !(runNr == 195749 && lumiSec == 108 && eventNr == 216906941)) && runNr < 99999999)*(((pt1 > 20 && pt2 > 10)||(pt1 > 10 && pt2 > 20)))*(p4.M() > 120)'
p176
sg9
L397L
ssg10
(dp177
g5
L186L
sg6
L196L
sg7
g176
sg9
L397L
ssg13
(dp178
g5
L186L
sg6
L196L
sg7
g176
sg9
L397L
ssg16
(dp179
g5
L186L
sg6
L196L
sg7
g176
sg9
L397L
sssS'pt3030'
p180
(dp181
g3
(dp182
g5
L138L
sg6
L147L
sg7
S'weight*(((nJets >= 2 && met > 150) || (nJets>=3 && met > 100)) &&  1.6 <= TMath::Max(abs(eta1),abs(eta2)) && ( chargeProduct < 0 && pt1 > 20 && pt2 > 20 && abs(eta1)<2.4  && abs(eta2) < 2.4 && ((abs(eta1) < 1.4 || abs(eta1) > 1.6) && (abs(eta2) < 1.4 || abs(eta2) > 1.6)) && p4.M() > 20 && deltaR > 0.3 && !(runNr == 195649 && lumiSec == 49 && eventNr == 75858433) && !(runNr == 195749 && lumiSec == 108 && eventNr == 216906941)) && runNr < 99999999)*(pt1 > 30 && pt2 > 30)*(p4.M() > 120)'
p183
sg9
L315L
ssg10
(dp184
g5
L138L
sg6
L147L
sg7
g183
sg9
L315L
ssg13
(dp185
g5
L138L
sg6
L147L
sg7
g183
sg9
L315L
ssg16
(dp186
g5
L138L
sg6
L147L
sg7
g183
sg9
L315L
sssS'midPU'
p187
(dp188
g3
(dp189
g5
L36L
sg6
L30L
sg7
S'weight*(((nJets >= 2 && met > 150) || (nJets>=3 && met > 100)) &&  1.6 <= TMath::Max(abs(eta1),abs(eta2)) && ( chargeProduct < 0 && pt1 > 20 && pt2 > 20 && abs(eta1)<2.4  && abs(eta2) < 2.4 && ((abs(eta1) < 1.4 || abs(eta1) > 1.6) && (abs(eta2) < 1.4 || abs(eta2) > 1.6)) && p4.M() > 20 && deltaR > 0.3 && !(runNr == 195649 && lumiSec == 49 && eventNr == 75858433) && !(runNr == 195749 && lumiSec == 108 && eventNr == 216906941)) && runNr < 99999999)*(nVertices >= 11 && nVertices < 16)*(p4.M()> 81 && p4.M() < 101)'
p190
sg9
L53L
ssg10
(dp191
g5
L39L
sg6
L22L
sg7
S'weight*(((nJets >= 2 && met > 150) || (nJets>=3 && met > 100)) &&  1.6 <= TMath::Max(abs(eta1),abs(eta2)) && ( chargeProduct < 0 && pt1 > 20 && pt2 > 20 && abs(eta1)<2.4  && abs(eta2) < 2.4 && ((abs(eta1) < 1.4 || abs(eta1) > 1.6) && (abs(eta2) < 1.4 || abs(eta2) > 1.6)) && p4.M() > 20 && deltaR > 0.3 && !(runNr == 195649 && lumiSec == 49 && eventNr == 75858433) && !(runNr == 195749 && lumiSec == 108 && eventNr == 216906941)) && runNr < 99999999)*(nVertices >= 11 && nVertices < 16)*(p4.M()> 20 && p4.M() < 70)'
p192
sg9
L51L
ssg13
(dp193
g5
L77L
sg6
L60L
sg7
S'weight*(((nJets >= 2 && met > 150) || (nJets>=3 && met > 100)) &&  1.6 <= TMath::Max(abs(eta1),abs(eta2)) && ( chargeProduct < 0 && pt1 > 20 && pt2 > 20 && abs(eta1)<2.4  && abs(eta2) < 2.4 && ((abs(eta1) < 1.4 || abs(eta1) > 1.6) && (abs(eta2) < 1.4 || abs(eta2) > 1.6)) && p4.M() > 20 && deltaR > 0.3 && !(runNr == 195649 && lumiSec == 49 && eventNr == 75858433) && !(runNr == 195749 && lumiSec == 108 && eventNr == 216906941)) && runNr < 99999999)*(nVertices >= 11 && nVertices < 16)*(p4.M() > 120)'
p194
sg9
L148L
ssg16
(dp195
g5
L197L
sg6
L134L
sg7
S'weight*(((nJets >= 2 && met > 150) || (nJets>=3 && met > 100)) &&  1.6 <= TMath::Max(abs(eta1),abs(eta2)) && ( chargeProduct < 0 && pt1 > 20 && pt2 > 20 && abs(eta1)<2.4  && abs(eta2) < 2.4 && ((abs(eta1) < 1.4 || abs(eta1) > 1.6) && (abs(eta2) < 1.4 || abs(eta2) > 1.6)) && p4.M() > 20 && deltaR > 0.3 && !(runNr == 195649 && lumiSec == 49 && eventNr == 75858433) && !(runNr == 195749 && lumiSec == 108 && eventNr == 216906941)) && runNr < 99999999)*(nVertices >= 11 && nVertices < 16)*(p4.M() > 20)'
p196
sg9
L313L
sss.