(dp0
S'OneBTags'
p1
(dp2
S'zMass'
p3
(dp4
S'EM'
p5
L6L
sS'cut'
p6
S'genWeight*weight*(((nJets >= 2 && met > 150) || (nJets >= 3 && met > 100)) && abs(eta1) < 1.4 && abs(eta2) < 1.4 && ( chargeProduct < 0 && pt1 > 20 && pt2 > 20  && abs(eta1)<2.4  && abs(eta2) < 2.4 && ((abs(eta1) < 1.4 || abs(eta1) > 1.6) && (abs(eta2) < 1.4 || abs(eta2) > 1.6)) && deltaR > 0.3 && p4.M() > 20) && ( (runNr > 254230 && runNr < 254833) || runNr > 254852 || runNr ==1) )*(nBJets == 1)*(p4.M()> 81 && p4.M() < 101)'
p7
sS'MM'
p8
L5L
sS'EEStatErr'
p9
F1.7320508075688772
sS'EMStatErr'
p10
F2.449489742783178
sS'EE'
p11
L3L
sS'MMStatErr'
p12
F2.23606797749979
ssS'edgeMass'
p13
(dp14
g5
L15L
sg6
S'genWeight*weight*(((nJets >= 2 && met > 150) || (nJets >= 3 && met > 100)) && abs(eta1) < 1.4 && abs(eta2) < 1.4 && ( chargeProduct < 0 && pt1 > 20 && pt2 > 20  && abs(eta1)<2.4  && abs(eta2) < 2.4 && ((abs(eta1) < 1.4 || abs(eta1) > 1.6) && (abs(eta2) < 1.4 || abs(eta2) > 1.6)) && deltaR > 0.3 && p4.M() > 20) && ( (runNr > 254230 && runNr < 254833) || runNr > 254852 || runNr ==1) )*(nBJets == 1)*(p4.M()> 20 && p4.M() < 70)'
p15
sg8
L15L
sg9
F2.6457513110645907
sg10
F3.872983346207417
sg11
L7L
sg12
F3.872983346207417
ssS'highMass'
p16
(dp17
g5
L19L
sg6
S'genWeight*weight*(((nJets >= 2 && met > 150) || (nJets >= 3 && met > 100)) && abs(eta1) < 1.4 && abs(eta2) < 1.4 && ( chargeProduct < 0 && pt1 > 20 && pt2 > 20  && abs(eta1)<2.4  && abs(eta2) < 2.4 && ((abs(eta1) < 1.4 || abs(eta1) > 1.6) && (abs(eta2) < 1.4 || abs(eta2) > 1.6)) && deltaR > 0.3 && p4.M() > 20) && ( (runNr > 254230 && runNr < 254833) || runNr > 254852 || runNr ==1) )*(nBJets == 1)*(p4.M() > 120)'
p18
sg8
L6L
sg9
F3.7416573867739413
sg10
F4.358898943540674
sg11
L14L
sg12
F2.449489742783178
ssS'fullMassRange'
p19
(dp20
g5
L45L
sg6
S'genWeight*weight*(((nJets >= 2 && met > 150) || (nJets >= 3 && met > 100)) && abs(eta1) < 1.4 && abs(eta2) < 1.4 && ( chargeProduct < 0 && pt1 > 20 && pt2 > 20  && abs(eta1)<2.4  && abs(eta2) < 2.4 && ((abs(eta1) < 1.4 || abs(eta1) > 1.6) && (abs(eta2) < 1.4 || abs(eta2) > 1.6)) && deltaR > 0.3 && p4.M() > 20) && ( (runNr > 254230 && runNr < 254833) || runNr > 254852 || runNr ==1) )*(nBJets == 1)*(p4.M() > 20)'
p21
sg8
L34L
sg9
F5.385164807134504
sg10
F6.708203932499369
sg11
L29L
sg12
F5.830951894845301
sssS'TwoBTags'
p22
(dp23
g3
(dp24
g5
L3L
sg6
S'genWeight*weight*(((nJets >= 2 && met > 150) || (nJets >= 3 && met > 100)) && abs(eta1) < 1.4 && abs(eta2) < 1.4 && ( chargeProduct < 0 && pt1 > 20 && pt2 > 20  && abs(eta1)<2.4  && abs(eta2) < 2.4 && ((abs(eta1) < 1.4 || abs(eta1) > 1.6) && (abs(eta2) < 1.4 || abs(eta2) > 1.6)) && deltaR > 0.3 && p4.M() > 20) && ( (runNr > 254230 && runNr < 254833) || runNr > 254852 || runNr ==1) )*(nBJets == 2)*(p4.M()> 81 && p4.M() < 101)'
p25
sg8
L4L
sg9
F1.0
sg10
F1.7320508075688772
sg11
L1L
sg12
F2.0
ssg13
(dp26
g5
L20L
sg6
S'genWeight*weight*(((nJets >= 2 && met > 150) || (nJets >= 3 && met > 100)) && abs(eta1) < 1.4 && abs(eta2) < 1.4 && ( chargeProduct < 0 && pt1 > 20 && pt2 > 20  && abs(eta1)<2.4  && abs(eta2) < 2.4 && ((abs(eta1) < 1.4 || abs(eta1) > 1.6) && (abs(eta2) < 1.4 || abs(eta2) > 1.6)) && deltaR > 0.3 && p4.M() > 20) && ( (runNr > 254230 && runNr < 254833) || runNr > 254852 || runNr ==1) )*(nBJets == 2)*(p4.M()> 20 && p4.M() < 70)'
p27
sg8
L12L
sg9
F2.8284271247461903
sg10
F4.47213595499958
sg11
L8L
sg12
F3.4641016151377544
ssg16
(dp28
g5
L16L
sg6
S'genWeight*weight*(((nJets >= 2 && met > 150) || (nJets >= 3 && met > 100)) && abs(eta1) < 1.4 && abs(eta2) < 1.4 && ( chargeProduct < 0 && pt1 > 20 && pt2 > 20  && abs(eta1)<2.4  && abs(eta2) < 2.4 && ((abs(eta1) < 1.4 || abs(eta1) > 1.6) && (abs(eta2) < 1.4 || abs(eta2) > 1.6)) && deltaR > 0.3 && p4.M() > 20) && ( (runNr > 254230 && runNr < 254833) || runNr > 254852 || runNr ==1) )*(nBJets == 2)*(p4.M() > 120)'
p29
sg8
L4L
sg9
F3.0
sg10
F4.0
sg11
L9L
sg12
F2.0
ssg19
(dp30
g5
L51L
sg6
S'genWeight*weight*(((nJets >= 2 && met > 150) || (nJets >= 3 && met > 100)) && abs(eta1) < 1.4 && abs(eta2) < 1.4 && ( chargeProduct < 0 && pt1 > 20 && pt2 > 20  && abs(eta1)<2.4  && abs(eta2) < 2.4 && ((abs(eta1) < 1.4 || abs(eta1) > 1.6) && (abs(eta2) < 1.4 || abs(eta2) > 1.6)) && deltaR > 0.3 && p4.M() > 20) && ( (runNr > 254230 && runNr < 254833) || runNr > 254852 || runNr ==1) )*(nBJets == 2)*(p4.M() > 20)'
p31
sg8
L26L
sg9
F5.0
sg10
F7.14142842854285
sg11
L25L
sg12
F5.0990195135927845
sssS'lowPU'
p32
(dp33
g3
(dp34
g5
L10L
sg6
S'genWeight*weight*(((nJets >= 2 && met > 150) || (nJets >= 3 && met > 100)) && abs(eta1) < 1.4 && abs(eta2) < 1.4 && ( chargeProduct < 0 && pt1 > 20 && pt2 > 20  && abs(eta1)<2.4  && abs(eta2) < 2.4 && ((abs(eta1) < 1.4 || abs(eta1) > 1.6) && (abs(eta2) < 1.4 || abs(eta2) > 1.6)) && deltaR > 0.3 && p4.M() > 20) && ( (runNr > 254230 && runNr < 254833) || runNr > 254852 || runNr ==1) )*(nVertices < 13)*(p4.M()> 81 && p4.M() < 101)'
p35
sg8
L11L
sg9
F2.0
sg10
F3.1622776601683795
sg11
L4L
sg12
F3.3166247903554
ssg13
(dp36
g5
L35L
sg6
S'genWeight*weight*(((nJets >= 2 && met > 150) || (nJets >= 3 && met > 100)) && abs(eta1) < 1.4 && abs(eta2) < 1.4 && ( chargeProduct < 0 && pt1 > 20 && pt2 > 20  && abs(eta1)<2.4  && abs(eta2) < 2.4 && ((abs(eta1) < 1.4 || abs(eta1) > 1.6) && (abs(eta2) < 1.4 || abs(eta2) > 1.6)) && deltaR > 0.3 && p4.M() > 20) && ( (runNr > 254230 && runNr < 254833) || runNr > 254852 || runNr ==1) )*(nVertices < 13)*(p4.M()> 20 && p4.M() < 70)'
p37
sg8
L25L
sg9
F4.0
sg10
F5.916079783099616
sg11
L16L
sg12
F5.0
ssg16
(dp38
g5
L36L
sg6
S'genWeight*weight*(((nJets >= 2 && met > 150) || (nJets >= 3 && met > 100)) && abs(eta1) < 1.4 && abs(eta2) < 1.4 && ( chargeProduct < 0 && pt1 > 20 && pt2 > 20  && abs(eta1)<2.4  && abs(eta2) < 2.4 && ((abs(eta1) < 1.4 || abs(eta1) > 1.6) && (abs(eta2) < 1.4 || abs(eta2) > 1.6)) && deltaR > 0.3 && p4.M() > 20) && ( (runNr > 254230 && runNr < 254833) || runNr > 254852 || runNr ==1) )*(nVertices < 13)*(p4.M() > 120)'
p39
sg8
L12L
sg9
F4.58257569495584
sg10
F6.0
sg11
L21L
sg12
F3.4641016151377544
ssg19
(dp40
g5
L101L
sg6
S'genWeight*weight*(((nJets >= 2 && met > 150) || (nJets >= 3 && met > 100)) && abs(eta1) < 1.4 && abs(eta2) < 1.4 && ( chargeProduct < 0 && pt1 > 20 && pt2 > 20  && abs(eta1)<2.4  && abs(eta2) < 2.4 && ((abs(eta1) < 1.4 || abs(eta1) > 1.6) && (abs(eta2) < 1.4 || abs(eta2) > 1.6)) && deltaR > 0.3 && p4.M() > 20) && ( (runNr > 254230 && runNr < 254833) || runNr > 254852 || runNr ==1) )*(nVertices < 13)*(p4.M() > 20)'
p41
sg8
L60L
sg9
F7.0710678118654755
sg10
F10.04987562112089
sg11
L50L
sg12
F7.745966692414834
sssS'default'
p42
(dp43
g3
(dp44
g5
L12L
sg6
S'genWeight*weight*(((nJets >= 2 && met > 150) || (nJets >= 3 && met > 100)) && abs(eta1) < 1.4 && abs(eta2) < 1.4 && ( chargeProduct < 0 && pt1 > 20 && pt2 > 20  && abs(eta1)<2.4  && abs(eta2) < 2.4 && ((abs(eta1) < 1.4 || abs(eta1) > 1.6) && (abs(eta2) < 1.4 || abs(eta2) > 1.6)) && deltaR > 0.3 && p4.M() > 20) && ( (runNr > 254230 && runNr < 254833) || runNr > 254852 || runNr ==1) )*(p4.M()> 81 && p4.M() < 101)'
p45
sg8
L12L
sg9
F2.23606797749979
sg10
F3.4641016151377544
sg11
L5L
sg12
F3.4641016151377544
ssg13
(dp46
g5
L41L
sg6
S'genWeight*weight*(((nJets >= 2 && met > 150) || (nJets >= 3 && met > 100)) && abs(eta1) < 1.4 && abs(eta2) < 1.4 && ( chargeProduct < 0 && pt1 > 20 && pt2 > 20  && abs(eta1)<2.4  && abs(eta2) < 2.4 && ((abs(eta1) < 1.4 || abs(eta1) > 1.6) && (abs(eta2) < 1.4 || abs(eta2) > 1.6)) && deltaR > 0.3 && p4.M() > 20) && ( (runNr > 254230 && runNr < 254833) || runNr > 254852 || runNr ==1) )*(p4.M()> 20 && p4.M() < 70)'
p47
sg8
L30L
sg9
F4.58257569495584
sg10
F6.4031242374328485
sg11
L21L
sg12
F5.477225575051661
ssg16
(dp48
g5
L40L
sg6
S'genWeight*weight*(((nJets >= 2 && met > 150) || (nJets >= 3 && met > 100)) && abs(eta1) < 1.4 && abs(eta2) < 1.4 && ( chargeProduct < 0 && pt1 > 20 && pt2 > 20  && abs(eta1)<2.4  && abs(eta2) < 2.4 && ((abs(eta1) < 1.4 || abs(eta1) > 1.6) && (abs(eta2) < 1.4 || abs(eta2) > 1.6)) && deltaR > 0.3 && p4.M() > 20) && ( (runNr > 254230 && runNr < 254833) || runNr > 254852 || runNr ==1) )*(p4.M() > 120)'
p49
sg8
L15L
sg9
F5.0
sg10
F6.324555320336759
sg11
L25L
sg12
F3.872983346207417
ssg19
(dp50
g5
L115L
sg6
S'genWeight*weight*(((nJets >= 2 && met > 150) || (nJets >= 3 && met > 100)) && abs(eta1) < 1.4 && abs(eta2) < 1.4 && ( chargeProduct < 0 && pt1 > 20 && pt2 > 20  && abs(eta1)<2.4  && abs(eta2) < 2.4 && ((abs(eta1) < 1.4 || abs(eta1) > 1.6) && (abs(eta2) < 1.4 || abs(eta2) > 1.6)) && deltaR > 0.3 && p4.M() > 20) && ( (runNr > 254230 && runNr < 254833) || runNr > 254852 || runNr ==1) )*(p4.M() > 20)'
p51
sg8
L77L
sg9
F8.06225774829855
sg10
F10.723805294763608
sg11
L65L
sg12
F8.774964387392123
sssS'pt3020'
p52
(dp53
g3
(dp54
g5
L12L
sg6
S'genWeight*weight*(((nJets >= 2 && met > 150) || (nJets >= 3 && met > 100)) && abs(eta1) < 1.4 && abs(eta2) < 1.4 && ( chargeProduct < 0 && pt1 > 20 && pt2 > 20  && abs(eta1)<2.4  && abs(eta2) < 2.4 && ((abs(eta1) < 1.4 || abs(eta1) > 1.6) && (abs(eta2) < 1.4 || abs(eta2) > 1.6)) && deltaR > 0.3 && p4.M() > 20) && ( (runNr > 254230 && runNr < 254833) || runNr > 254852 || runNr ==1) )*(((pt1 > 30 && pt2 > 20)||(pt1 > 20 && pt2 > 30)))*(p4.M()> 81 && p4.M() < 101)'
p55
sg8
L12L
sg9
F2.23606797749979
sg10
F3.4641016151377544
sg11
L5L
sg12
F3.4641016151377544
ssg13
(dp56
g5
L35L
sg6
S'genWeight*weight*(((nJets >= 2 && met > 150) || (nJets >= 3 && met > 100)) && abs(eta1) < 1.4 && abs(eta2) < 1.4 && ( chargeProduct < 0 && pt1 > 20 && pt2 > 20  && abs(eta1)<2.4  && abs(eta2) < 2.4 && ((abs(eta1) < 1.4 || abs(eta1) > 1.6) && (abs(eta2) < 1.4 || abs(eta2) > 1.6)) && deltaR > 0.3 && p4.M() > 20) && ( (runNr > 254230 && runNr < 254833) || runNr > 254852 || runNr ==1) )*(((pt1 > 30 && pt2 > 20)||(pt1 > 20 && pt2 > 30)))*(p4.M()> 20 && p4.M() < 70)'
p57
sg8
L27L
sg9
F4.242640687119285
sg10
F5.916079783099616
sg11
L18L
sg12
F5.196152422706632
ssg16
(dp58
g5
L40L
sg6
S'genWeight*weight*(((nJets >= 2 && met > 150) || (nJets >= 3 && met > 100)) && abs(eta1) < 1.4 && abs(eta2) < 1.4 && ( chargeProduct < 0 && pt1 > 20 && pt2 > 20  && abs(eta1)<2.4  && abs(eta2) < 2.4 && ((abs(eta1) < 1.4 || abs(eta1) > 1.6) && (abs(eta2) < 1.4 || abs(eta2) > 1.6)) && deltaR > 0.3 && p4.M() > 20) && ( (runNr > 254230 && runNr < 254833) || runNr > 254852 || runNr ==1) )*(((pt1 > 30 && pt2 > 20)||(pt1 > 20 && pt2 > 30)))*(p4.M() > 120)'
p59
sg8
L15L
sg9
F5.0
sg10
F6.324555320336759
sg11
L25L
sg12
F3.872983346207417
ssg19
(dp60
g5
L109L
sg6
S'genWeight*weight*(((nJets >= 2 && met > 150) || (nJets >= 3 && met > 100)) && abs(eta1) < 1.4 && abs(eta2) < 1.4 && ( chargeProduct < 0 && pt1 > 20 && pt2 > 20  && abs(eta1)<2.4  && abs(eta2) < 2.4 && ((abs(eta1) < 1.4 || abs(eta1) > 1.6) && (abs(eta2) < 1.4 || abs(eta2) > 1.6)) && deltaR > 0.3 && p4.M() > 20) && ( (runNr > 254230 && runNr < 254833) || runNr > 254852 || runNr ==1) )*(((pt1 > 30 && pt2 > 20)||(pt1 > 20 && pt2 > 30)))*(p4.M() > 20)'
p61
sg8
L73L
sg9
F7.874007874011811
sg10
F10.44030650891055
sg11
L62L
sg12
F8.54400374531753
sssS'ht300'
p62
(dp63
g3
(dp64
g5
L3L
sg6
S'genWeight*weight*(((nJets >= 2 && met > 150) || (nJets >= 3 && met > 100)) && abs(eta1) < 1.4 && abs(eta2) < 1.4 && ( chargeProduct < 0 && pt1 > 20 && pt2 > 20  && abs(eta1)<2.4  && abs(eta2) < 2.4 && ((abs(eta1) < 1.4 || abs(eta1) > 1.6) && (abs(eta2) < 1.4 || abs(eta2) > 1.6)) && deltaR > 0.3 && p4.M() > 20) && ( (runNr > 254230 && runNr < 254833) || runNr > 254852 || runNr ==1) )*(ht > 300)*(p4.M()> 81 && p4.M() < 101)'
p65
sg8
L5L
sg9
F2.23606797749979
sg10
F1.7320508075688772
sg11
L5L
sg12
F2.23606797749979
ssg13
(dp66
g5
L20L
sg6
S'genWeight*weight*(((nJets >= 2 && met > 150) || (nJets >= 3 && met > 100)) && abs(eta1) < 1.4 && abs(eta2) < 1.4 && ( chargeProduct < 0 && pt1 > 20 && pt2 > 20  && abs(eta1)<2.4  && abs(eta2) < 2.4 && ((abs(eta1) < 1.4 || abs(eta1) > 1.6) && (abs(eta2) < 1.4 || abs(eta2) > 1.6)) && deltaR > 0.3 && p4.M() > 20) && ( (runNr > 254230 && runNr < 254833) || runNr > 254852 || runNr ==1) )*(ht > 300)*(p4.M()> 20 && p4.M() < 70)'
p67
sg8
L11L
sg9
F3.0
sg10
F4.47213595499958
sg11
L9L
sg12
F3.3166247903554
ssg16
(dp68
g5
L21L
sg6
S'genWeight*weight*(((nJets >= 2 && met > 150) || (nJets >= 3 && met > 100)) && abs(eta1) < 1.4 && abs(eta2) < 1.4 && ( chargeProduct < 0 && pt1 > 20 && pt2 > 20  && abs(eta1)<2.4  && abs(eta2) < 2.4 && ((abs(eta1) < 1.4 || abs(eta1) > 1.6) && (abs(eta2) < 1.4 || abs(eta2) > 1.6)) && deltaR > 0.3 && p4.M() > 20) && ( (runNr > 254230 && runNr < 254833) || runNr > 254852 || runNr ==1) )*(ht > 300)*(p4.M() > 120)'
p69
sg8
L9L
sg9
F3.872983346207417
sg10
F4.58257569495584
sg11
L15L
sg12
F3.0
ssg19
(dp70
g5
L56L
sg6
S'genWeight*weight*(((nJets >= 2 && met > 150) || (nJets >= 3 && met > 100)) && abs(eta1) < 1.4 && abs(eta2) < 1.4 && ( chargeProduct < 0 && pt1 > 20 && pt2 > 20  && abs(eta1)<2.4  && abs(eta2) < 2.4 && ((abs(eta1) < 1.4 || abs(eta1) > 1.6) && (abs(eta2) < 1.4 || abs(eta2) > 1.6)) && deltaR > 0.3 && p4.M() > 20) && ( (runNr > 254230 && runNr < 254833) || runNr > 254852 || runNr ==1) )*(ht > 300)*(p4.M() > 20)'
p71
sg8
L37L
sg9
F5.916079783099616
sg10
F7.483314773547883
sg11
L35L
sg12
F6.082762530298219
sssS'geTwoBTags'
p72
(dp73
g3
(dp74
g5
L3L
sg6
S'genWeight*weight*(((nJets >= 2 && met > 150) || (nJets >= 3 && met > 100)) && abs(eta1) < 1.4 && abs(eta2) < 1.4 && ( chargeProduct < 0 && pt1 > 20 && pt2 > 20  && abs(eta1)<2.4  && abs(eta2) < 2.4 && ((abs(eta1) < 1.4 || abs(eta1) > 1.6) && (abs(eta2) < 1.4 || abs(eta2) > 1.6)) && deltaR > 0.3 && p4.M() > 20) && ( (runNr > 254230 && runNr < 254833) || runNr > 254852 || runNr ==1) )*(nBJets >= 2)*(p4.M()> 81 && p4.M() < 101)'
p75
sg8
L4L
sg9
F1.0
sg10
F1.7320508075688772
sg11
L1L
sg12
F2.0
ssg13
(dp76
g5
L21L
sg6
S'genWeight*weight*(((nJets >= 2 && met > 150) || (nJets >= 3 && met > 100)) && abs(eta1) < 1.4 && abs(eta2) < 1.4 && ( chargeProduct < 0 && pt1 > 20 && pt2 > 20  && abs(eta1)<2.4  && abs(eta2) < 2.4 && ((abs(eta1) < 1.4 || abs(eta1) > 1.6) && (abs(eta2) < 1.4 || abs(eta2) > 1.6)) && deltaR > 0.3 && p4.M() > 20) && ( (runNr > 254230 && runNr < 254833) || runNr > 254852 || runNr ==1) )*(nBJets >= 2)*(p4.M()> 20 && p4.M() < 70)'
p77
sg8
L12L
sg9
F2.8284271247461903
sg10
F4.58257569495584
sg11
L8L
sg12
F3.4641016151377544
ssg16
(dp78
g5
L16L
sg6
S'genWeight*weight*(((nJets >= 2 && met > 150) || (nJets >= 3 && met > 100)) && abs(eta1) < 1.4 && abs(eta2) < 1.4 && ( chargeProduct < 0 && pt1 > 20 && pt2 > 20  && abs(eta1)<2.4  && abs(eta2) < 2.4 && ((abs(eta1) < 1.4 || abs(eta1) > 1.6) && (abs(eta2) < 1.4 || abs(eta2) > 1.6)) && deltaR > 0.3 && p4.M() > 20) && ( (runNr > 254230 && runNr < 254833) || runNr > 254852 || runNr ==1) )*(nBJets >= 2)*(p4.M() > 120)'
p79
sg8
L4L
sg9
F3.0
sg10
F4.0
sg11
L9L
sg12
F2.0
ssg19
(dp80
g5
L53L
sg6
S'genWeight*weight*(((nJets >= 2 && met > 150) || (nJets >= 3 && met > 100)) && abs(eta1) < 1.4 && abs(eta2) < 1.4 && ( chargeProduct < 0 && pt1 > 20 && pt2 > 20  && abs(eta1)<2.4  && abs(eta2) < 2.4 && ((abs(eta1) < 1.4 || abs(eta1) > 1.6) && (abs(eta2) < 1.4 || abs(eta2) > 1.6)) && deltaR > 0.3 && p4.M() > 20) && ( (runNr > 254230 && runNr < 254833) || runNr > 254852 || runNr ==1) )*(nBJets >= 2)*(p4.M() > 20)'
p81
sg8
L27L
sg9
F5.0990195135927845
sg10
F7.280109889280518
sg11
L26L
sg12
F5.196152422706632
sssS'geOneBTags'
p82
(dp83
g3
(dp84
g5
L9L
sg6
S'genWeight*weight*(((nJets >= 2 && met > 150) || (nJets >= 3 && met > 100)) && abs(eta1) < 1.4 && abs(eta2) < 1.4 && ( chargeProduct < 0 && pt1 > 20 && pt2 > 20  && abs(eta1)<2.4  && abs(eta2) < 2.4 && ((abs(eta1) < 1.4 || abs(eta1) > 1.6) && (abs(eta2) < 1.4 || abs(eta2) > 1.6)) && deltaR > 0.3 && p4.M() > 20) && ( (runNr > 254230 && runNr < 254833) || runNr > 254852 || runNr ==1) )*(nBJets >= 1)*(p4.M()> 81 && p4.M() < 101)'
p85
sg8
L9L
sg9
F2.0
sg10
F3.0
sg11
L4L
sg12
F3.0
ssg13
(dp86
g5
L36L
sg6
S'genWeight*weight*(((nJets >= 2 && met > 150) || (nJets >= 3 && met > 100)) && abs(eta1) < 1.4 && abs(eta2) < 1.4 && ( chargeProduct < 0 && pt1 > 20 && pt2 > 20  && abs(eta1)<2.4  && abs(eta2) < 2.4 && ((abs(eta1) < 1.4 || abs(eta1) > 1.6) && (abs(eta2) < 1.4 || abs(eta2) > 1.6)) && deltaR > 0.3 && p4.M() > 20) && ( (runNr > 254230 && runNr < 254833) || runNr > 254852 || runNr ==1) )*(nBJets >= 1)*(p4.M()> 20 && p4.M() < 70)'
p87
sg8
L27L
sg9
F3.872983346207417
sg10
F6.0
sg11
L15L
sg12
F5.196152422706632
ssg16
(dp88
g5
L35L
sg6
S'genWeight*weight*(((nJets >= 2 && met > 150) || (nJets >= 3 && met > 100)) && abs(eta1) < 1.4 && abs(eta2) < 1.4 && ( chargeProduct < 0 && pt1 > 20 && pt2 > 20  && abs(eta1)<2.4  && abs(eta2) < 2.4 && ((abs(eta1) < 1.4 || abs(eta1) > 1.6) && (abs(eta2) < 1.4 || abs(eta2) > 1.6)) && deltaR > 0.3 && p4.M() > 20) && ( (runNr > 254230 && runNr < 254833) || runNr > 254852 || runNr ==1) )*(nBJets >= 1)*(p4.M() > 120)'
p89
sg8
L10L
sg9
F4.795831523312719
sg10
F5.916079783099616
sg11
L23L
sg12
F3.1622776601683795
ssg19
(dp90
g5
L98L
sg6
S'genWeight*weight*(((nJets >= 2 && met > 150) || (nJets >= 3 && met > 100)) && abs(eta1) < 1.4 && abs(eta2) < 1.4 && ( chargeProduct < 0 && pt1 > 20 && pt2 > 20  && abs(eta1)<2.4  && abs(eta2) < 2.4 && ((abs(eta1) < 1.4 || abs(eta1) > 1.6) && (abs(eta2) < 1.4 || abs(eta2) > 1.6)) && deltaR > 0.3 && p4.M() > 20) && ( (runNr > 254230 && runNr < 254833) || runNr > 254852 || runNr ==1) )*(nBJets >= 1)*(p4.M() > 20)'
p91
sg8
L61L
sg9
F7.416198487095663
sg10
F9.899494936611665
sg11
L55L
sg12
F7.810249675906654
sssS'pt3010'
p92
(dp93
g3
(dp94
g5
L12L
sg6
S'genWeight*weight*(((nJets >= 2 && met > 150) || (nJets >= 3 && met > 100)) && abs(eta1) < 1.4 && abs(eta2) < 1.4 && ( chargeProduct < 0 && pt1 > 20 && pt2 > 20  && abs(eta1)<2.4  && abs(eta2) < 2.4 && ((abs(eta1) < 1.4 || abs(eta1) > 1.6) && (abs(eta2) < 1.4 || abs(eta2) > 1.6)) && deltaR > 0.3 && p4.M() > 20) && ( (runNr > 254230 && runNr < 254833) || runNr > 254852 || runNr ==1) )*(((pt1 > 30 && pt2 > 10)||(pt1 > 10 && pt2 > 30)))*(p4.M()> 81 && p4.M() < 101)'
p95
sg8
L12L
sg9
F2.23606797749979
sg10
F3.4641016151377544
sg11
L5L
sg12
F3.4641016151377544
ssg13
(dp96
g5
L35L
sg6
S'genWeight*weight*(((nJets >= 2 && met > 150) || (nJets >= 3 && met > 100)) && abs(eta1) < 1.4 && abs(eta2) < 1.4 && ( chargeProduct < 0 && pt1 > 20 && pt2 > 20  && abs(eta1)<2.4  && abs(eta2) < 2.4 && ((abs(eta1) < 1.4 || abs(eta1) > 1.6) && (abs(eta2) < 1.4 || abs(eta2) > 1.6)) && deltaR > 0.3 && p4.M() > 20) && ( (runNr > 254230 && runNr < 254833) || runNr > 254852 || runNr ==1) )*(((pt1 > 30 && pt2 > 10)||(pt1 > 10 && pt2 > 30)))*(p4.M()> 20 && p4.M() < 70)'
p97
sg8
L27L
sg9
F4.242640687119285
sg10
F5.916079783099616
sg11
L18L
sg12
F5.196152422706632
ssg16
(dp98
g5
L40L
sg6
S'genWeight*weight*(((nJets >= 2 && met > 150) || (nJets >= 3 && met > 100)) && abs(eta1) < 1.4 && abs(eta2) < 1.4 && ( chargeProduct < 0 && pt1 > 20 && pt2 > 20  && abs(eta1)<2.4  && abs(eta2) < 2.4 && ((abs(eta1) < 1.4 || abs(eta1) > 1.6) && (abs(eta2) < 1.4 || abs(eta2) > 1.6)) && deltaR > 0.3 && p4.M() > 20) && ( (runNr > 254230 && runNr < 254833) || runNr > 254852 || runNr ==1) )*(((pt1 > 30 && pt2 > 10)||(pt1 > 10 && pt2 > 30)))*(p4.M() > 120)'
p99
sg8
L15L
sg9
F5.0
sg10
F6.324555320336759
sg11
L25L
sg12
F3.872983346207417
ssg19
(dp100
g5
L109L
sg6
S'genWeight*weight*(((nJets >= 2 && met > 150) || (nJets >= 3 && met > 100)) && abs(eta1) < 1.4 && abs(eta2) < 1.4 && ( chargeProduct < 0 && pt1 > 20 && pt2 > 20  && abs(eta1)<2.4  && abs(eta2) < 2.4 && ((abs(eta1) < 1.4 || abs(eta1) > 1.6) && (abs(eta2) < 1.4 || abs(eta2) > 1.6)) && deltaR > 0.3 && p4.M() > 20) && ( (runNr > 254230 && runNr < 254833) || runNr > 254852 || runNr ==1) )*(((pt1 > 30 && pt2 > 10)||(pt1 > 10 && pt2 > 30)))*(p4.M() > 20)'
p101
sg8
L73L
sg9
F7.874007874011811
sg10
F10.44030650891055
sg11
L62L
sg12
F8.54400374531753
sssS'highPU'
p102
(dp103
g3
(dp104
g5
L0L
sg6
S'genWeight*weight*(((nJets >= 2 && met > 150) || (nJets >= 3 && met > 100)) && abs(eta1) < 1.4 && abs(eta2) < 1.4 && ( chargeProduct < 0 && pt1 > 20 && pt2 > 20  && abs(eta1)<2.4  && abs(eta2) < 2.4 && ((abs(eta1) < 1.4 || abs(eta1) > 1.6) && (abs(eta2) < 1.4 || abs(eta2) > 1.6)) && deltaR > 0.3 && p4.M() > 20) && ( (runNr > 254230 && runNr < 254833) || runNr > 254852 || runNr ==1) )*(nVertices >= 17)*(p4.M()> 81 && p4.M() < 101)'
p105
sg8
L0L
sg9
F0.0
sg10
F0.0
sg11
L0L
sg12
F0.0
ssg13
(dp106
g5
L0L
sg6
S'genWeight*weight*(((nJets >= 2 && met > 150) || (nJets >= 3 && met > 100)) && abs(eta1) < 1.4 && abs(eta2) < 1.4 && ( chargeProduct < 0 && pt1 > 20 && pt2 > 20  && abs(eta1)<2.4  && abs(eta2) < 2.4 && ((abs(eta1) < 1.4 || abs(eta1) > 1.6) && (abs(eta2) < 1.4 || abs(eta2) > 1.6)) && deltaR > 0.3 && p4.M() > 20) && ( (runNr > 254230 && runNr < 254833) || runNr > 254852 || runNr ==1) )*(nVertices >= 17)*(p4.M()> 20 && p4.M() < 70)'
p107
sg8
L0L
sg9
F0.0
sg10
F0.0
sg11
L0L
sg12
F0.0
ssg16
(dp108
g5
L0L
sg6
S'genWeight*weight*(((nJets >= 2 && met > 150) || (nJets >= 3 && met > 100)) && abs(eta1) < 1.4 && abs(eta2) < 1.4 && ( chargeProduct < 0 && pt1 > 20 && pt2 > 20  && abs(eta1)<2.4  && abs(eta2) < 2.4 && ((abs(eta1) < 1.4 || abs(eta1) > 1.6) && (abs(eta2) < 1.4 || abs(eta2) > 1.6)) && deltaR > 0.3 && p4.M() > 20) && ( (runNr > 254230 && runNr < 254833) || runNr > 254852 || runNr ==1) )*(nVertices >= 17)*(p4.M() > 120)'
p109
sg8
L2L
sg9
F1.4142135623730951
sg10
F0.0
sg11
L2L
sg12
F1.4142135623730951
ssg19
(dp110
g5
L0L
sg6
S'genWeight*weight*(((nJets >= 2 && met > 150) || (nJets >= 3 && met > 100)) && abs(eta1) < 1.4 && abs(eta2) < 1.4 && ( chargeProduct < 0 && pt1 > 20 && pt2 > 20  && abs(eta1)<2.4  && abs(eta2) < 2.4 && ((abs(eta1) < 1.4 || abs(eta1) > 1.6) && (abs(eta2) < 1.4 || abs(eta2) > 1.6)) && deltaR > 0.3 && p4.M() > 20) && ( (runNr > 254230 && runNr < 254833) || runNr > 254852 || runNr ==1) )*(nVertices >= 17)*(p4.M() > 20)'
p111
sg8
L3L
sg9
F1.7320508075688772
sg10
F0.0
sg11
L3L
sg12
F1.7320508075688772
sssS'TightIso'
p112
(dp113
g3
(dp114
g5
L12L
sg6
S'genWeight*weight*(((nJets >= 2 && met > 150) || (nJets >= 3 && met > 100)) && abs(eta1) < 1.4 && abs(eta2) < 1.4 && ( chargeProduct < 0 && pt1 > 20 && pt2 > 20  && abs(eta1)<2.4  && abs(eta2) < 2.4 && ((abs(eta1) < 1.4 || abs(eta1) > 1.6) && (abs(eta2) < 1.4 || abs(eta2) > 1.6)) && deltaR > 0.3 && p4.M() > 20) && ( (runNr > 254230 && runNr < 254833) || runNr > 254852 || runNr ==1) )*(miniIsoEffArea1 < 0.05 && miniIsoEffArea2 < 0.05)*(p4.M()> 81 && p4.M() < 101)'
p115
sg8
L11L
sg9
F1.7320508075688772
sg10
F3.4641016151377544
sg11
L3L
sg12
F3.3166247903554
ssg13
(dp116
g5
L33L
sg6
S'genWeight*weight*(((nJets >= 2 && met > 150) || (nJets >= 3 && met > 100)) && abs(eta1) < 1.4 && abs(eta2) < 1.4 && ( chargeProduct < 0 && pt1 > 20 && pt2 > 20  && abs(eta1)<2.4  && abs(eta2) < 2.4 && ((abs(eta1) < 1.4 || abs(eta1) > 1.6) && (abs(eta2) < 1.4 || abs(eta2) > 1.6)) && deltaR > 0.3 && p4.M() > 20) && ( (runNr > 254230 && runNr < 254833) || runNr > 254852 || runNr ==1) )*(miniIsoEffArea1 < 0.05 && miniIsoEffArea2 < 0.05)*(p4.M()> 20 && p4.M() < 70)'
p117
sg8
L26L
sg9
F4.0
sg10
F5.744562646538029
sg11
L16L
sg12
F5.0990195135927845
ssg16
(dp118
g5
L37L
sg6
S'genWeight*weight*(((nJets >= 2 && met > 150) || (nJets >= 3 && met > 100)) && abs(eta1) < 1.4 && abs(eta2) < 1.4 && ( chargeProduct < 0 && pt1 > 20 && pt2 > 20  && abs(eta1)<2.4  && abs(eta2) < 2.4 && ((abs(eta1) < 1.4 || abs(eta1) > 1.6) && (abs(eta2) < 1.4 || abs(eta2) > 1.6)) && deltaR > 0.3 && p4.M() > 20) && ( (runNr > 254230 && runNr < 254833) || runNr > 254852 || runNr ==1) )*(miniIsoEffArea1 < 0.05 && miniIsoEffArea2 < 0.05)*(p4.M() > 120)'
p119
sg8
L14L
sg9
F4.795831523312719
sg10
F6.082762530298219
sg11
L23L
sg12
F3.7416573867739413
ssg19
(dp120
g5
L103L
sg6
S'genWeight*weight*(((nJets >= 2 && met > 150) || (nJets >= 3 && met > 100)) && abs(eta1) < 1.4 && abs(eta2) < 1.4 && ( chargeProduct < 0 && pt1 > 20 && pt2 > 20  && abs(eta1)<2.4  && abs(eta2) < 2.4 && ((abs(eta1) < 1.4 || abs(eta1) > 1.6) && (abs(eta2) < 1.4 || abs(eta2) > 1.6)) && deltaR > 0.3 && p4.M() > 20) && ( (runNr > 254230 && runNr < 254833) || runNr > 254852 || runNr ==1) )*(miniIsoEffArea1 < 0.05 && miniIsoEffArea2 < 0.05)*(p4.M() > 20)'
p121
sg8
L67L
sg9
F7.3484692283495345
sg10
F10.14889156509222
sg11
L54L
sg12
F8.18535277187245
sssS'noBTags'
p122
(dp123
g3
(dp124
g5
L3L
sg6
S'genWeight*weight*(((nJets >= 2 && met > 150) || (nJets >= 3 && met > 100)) && abs(eta1) < 1.4 && abs(eta2) < 1.4 && ( chargeProduct < 0 && pt1 > 20 && pt2 > 20  && abs(eta1)<2.4  && abs(eta2) < 2.4 && ((abs(eta1) < 1.4 || abs(eta1) > 1.6) && (abs(eta2) < 1.4 || abs(eta2) > 1.6)) && deltaR > 0.3 && p4.M() > 20) && ( (runNr > 254230 && runNr < 254833) || runNr > 254852 || runNr ==1) )*(nBJets == 0)*(p4.M()> 81 && p4.M() < 101)'
p125
sg8
L3L
sg9
F1.0
sg10
F1.7320508075688772
sg11
L1L
sg12
F1.7320508075688772
ssg13
(dp126
g5
L5L
sg6
S'genWeight*weight*(((nJets >= 2 && met > 150) || (nJets >= 3 && met > 100)) && abs(eta1) < 1.4 && abs(eta2) < 1.4 && ( chargeProduct < 0 && pt1 > 20 && pt2 > 20  && abs(eta1)<2.4  && abs(eta2) < 2.4 && ((abs(eta1) < 1.4 || abs(eta1) > 1.6) && (abs(eta2) < 1.4 || abs(eta2) > 1.6)) && deltaR > 0.3 && p4.M() > 20) && ( (runNr > 254230 && runNr < 254833) || runNr > 254852 || runNr ==1) )*(nBJets == 0)*(p4.M()> 20 && p4.M() < 70)'
p127
sg8
L3L
sg9
F2.449489742783178
sg10
F2.23606797749979
sg11
L6L
sg12
F1.7320508075688772
ssg16
(dp128
g5
L5L
sg6
S'genWeight*weight*(((nJets >= 2 && met > 150) || (nJets >= 3 && met > 100)) && abs(eta1) < 1.4 && abs(eta2) < 1.4 && ( chargeProduct < 0 && pt1 > 20 && pt2 > 20  && abs(eta1)<2.4  && abs(eta2) < 2.4 && ((abs(eta1) < 1.4 || abs(eta1) > 1.6) && (abs(eta2) < 1.4 || abs(eta2) > 1.6)) && deltaR > 0.3 && p4.M() > 20) && ( (runNr > 254230 && runNr < 254833) || runNr > 254852 || runNr ==1) )*(nBJets == 0)*(p4.M() > 120)'
p129
sg8
L5L
sg9
F1.4142135623730951
sg10
F2.23606797749979
sg11
L2L
sg12
F2.23606797749979
ssg19
(dp130
g5
L17L
sg6
S'genWeight*weight*(((nJets >= 2 && met > 150) || (nJets >= 3 && met > 100)) && abs(eta1) < 1.4 && abs(eta2) < 1.4 && ( chargeProduct < 0 && pt1 > 20 && pt2 > 20  && abs(eta1)<2.4  && abs(eta2) < 2.4 && ((abs(eta1) < 1.4 || abs(eta1) > 1.6) && (abs(eta2) < 1.4 || abs(eta2) > 1.6)) && deltaR > 0.3 && p4.M() > 20) && ( (runNr > 254230 && runNr < 254833) || runNr > 254852 || runNr ==1) )*(nBJets == 0)*(p4.M() > 20)'
p131
sg8
L16L
sg9
F3.1622776601683795
sg10
F4.123105625617661
sg11
L10L
sg12
F4.0
sssS'pt2010'
p132
(dp133
g3
(dp134
g5
L12L
sg6
S'genWeight*weight*(((nJets >= 2 && met > 150) || (nJets >= 3 && met > 100)) && abs(eta1) < 1.4 && abs(eta2) < 1.4 && ( chargeProduct < 0 && pt1 > 20 && pt2 > 20  && abs(eta1)<2.4  && abs(eta2) < 2.4 && ((abs(eta1) < 1.4 || abs(eta1) > 1.6) && (abs(eta2) < 1.4 || abs(eta2) > 1.6)) && deltaR > 0.3 && p4.M() > 20) && ( (runNr > 254230 && runNr < 254833) || runNr > 254852 || runNr ==1) )*(((pt1 > 20 && pt2 > 10)||(pt1 > 10 && pt2 > 20)))*(p4.M()> 81 && p4.M() < 101)'
p135
sg8
L12L
sg9
F2.23606797749979
sg10
F3.4641016151377544
sg11
L5L
sg12
F3.4641016151377544
ssg13
(dp136
g5
L41L
sg6
S'genWeight*weight*(((nJets >= 2 && met > 150) || (nJets >= 3 && met > 100)) && abs(eta1) < 1.4 && abs(eta2) < 1.4 && ( chargeProduct < 0 && pt1 > 20 && pt2 > 20  && abs(eta1)<2.4  && abs(eta2) < 2.4 && ((abs(eta1) < 1.4 || abs(eta1) > 1.6) && (abs(eta2) < 1.4 || abs(eta2) > 1.6)) && deltaR > 0.3 && p4.M() > 20) && ( (runNr > 254230 && runNr < 254833) || runNr > 254852 || runNr ==1) )*(((pt1 > 20 && pt2 > 10)||(pt1 > 10 && pt2 > 20)))*(p4.M()> 20 && p4.M() < 70)'
p137
sg8
L30L
sg9
F4.58257569495584
sg10
F6.4031242374328485
sg11
L21L
sg12
F5.477225575051661
ssg16
(dp138
g5
L40L
sg6
S'genWeight*weight*(((nJets >= 2 && met > 150) || (nJets >= 3 && met > 100)) && abs(eta1) < 1.4 && abs(eta2) < 1.4 && ( chargeProduct < 0 && pt1 > 20 && pt2 > 20  && abs(eta1)<2.4  && abs(eta2) < 2.4 && ((abs(eta1) < 1.4 || abs(eta1) > 1.6) && (abs(eta2) < 1.4 || abs(eta2) > 1.6)) && deltaR > 0.3 && p4.M() > 20) && ( (runNr > 254230 && runNr < 254833) || runNr > 254852 || runNr ==1) )*(((pt1 > 20 && pt2 > 10)||(pt1 > 10 && pt2 > 20)))*(p4.M() > 120)'
p139
sg8
L15L
sg9
F5.0
sg10
F6.324555320336759
sg11
L25L
sg12
F3.872983346207417
ssg19
(dp140
g5
L115L
sg6
S'genWeight*weight*(((nJets >= 2 && met > 150) || (nJets >= 3 && met > 100)) && abs(eta1) < 1.4 && abs(eta2) < 1.4 && ( chargeProduct < 0 && pt1 > 20 && pt2 > 20  && abs(eta1)<2.4  && abs(eta2) < 2.4 && ((abs(eta1) < 1.4 || abs(eta1) > 1.6) && (abs(eta2) < 1.4 || abs(eta2) > 1.6)) && deltaR > 0.3 && p4.M() > 20) && ( (runNr > 254230 && runNr < 254833) || runNr > 254852 || runNr ==1) )*(((pt1 > 20 && pt2 > 10)||(pt1 > 10 && pt2 > 20)))*(p4.M() > 20)'
p141
sg8
L77L
sg9
F8.06225774829855
sg10
F10.723805294763608
sg11
L65L
sg12
F8.774964387392123
sssS'ht100to300'
p142
(dp143
g3
(dp144
g5
L9L
sg6
S'genWeight*weight*(((nJets >= 2 && met > 150) || (nJets >= 3 && met > 100)) && abs(eta1) < 1.4 && abs(eta2) < 1.4 && ( chargeProduct < 0 && pt1 > 20 && pt2 > 20  && abs(eta1)<2.4  && abs(eta2) < 2.4 && ((abs(eta1) < 1.4 || abs(eta1) > 1.6) && (abs(eta2) < 1.4 || abs(eta2) > 1.6)) && deltaR > 0.3 && p4.M() > 20) && ( (runNr > 254230 && runNr < 254833) || runNr > 254852 || runNr ==1) )*(ht > 100 && ht < 300)*(p4.M()> 81 && p4.M() < 101)'
p145
sg8
L7L
sg9
F0.0
sg10
F3.0
sg11
L0L
sg12
F2.6457513110645907
ssg13
(dp146
g5
L21L
sg6
S'genWeight*weight*(((nJets >= 2 && met > 150) || (nJets >= 3 && met > 100)) && abs(eta1) < 1.4 && abs(eta2) < 1.4 && ( chargeProduct < 0 && pt1 > 20 && pt2 > 20  && abs(eta1)<2.4  && abs(eta2) < 2.4 && ((abs(eta1) < 1.4 || abs(eta1) > 1.6) && (abs(eta2) < 1.4 || abs(eta2) > 1.6)) && deltaR > 0.3 && p4.M() > 20) && ( (runNr > 254230 && runNr < 254833) || runNr > 254852 || runNr ==1) )*(ht > 100 && ht < 300)*(p4.M()> 20 && p4.M() < 70)'
p147
sg8
L17L
sg9
F3.4641016151377544
sg10
F4.58257569495584
sg11
L12L
sg12
F4.123105625617661
ssg16
(dp148
g5
L19L
sg6
S'genWeight*weight*(((nJets >= 2 && met > 150) || (nJets >= 3 && met > 100)) && abs(eta1) < 1.4 && abs(eta2) < 1.4 && ( chargeProduct < 0 && pt1 > 20 && pt2 > 20  && abs(eta1)<2.4  && abs(eta2) < 2.4 && ((abs(eta1) < 1.4 || abs(eta1) > 1.6) && (abs(eta2) < 1.4 || abs(eta2) > 1.6)) && deltaR > 0.3 && p4.M() > 20) && ( (runNr > 254230 && runNr < 254833) || runNr > 254852 || runNr ==1) )*(ht > 100 && ht < 300)*(p4.M() > 120)'
p149
sg8
L6L
sg9
F3.1622776601683795
sg10
F4.358898943540674
sg11
L10L
sg12
F2.449489742783178
ssg19
(dp150
g5
L59L
sg6
S'genWeight*weight*(((nJets >= 2 && met > 150) || (nJets >= 3 && met > 100)) && abs(eta1) < 1.4 && abs(eta2) < 1.4 && ( chargeProduct < 0 && pt1 > 20 && pt2 > 20  && abs(eta1)<2.4  && abs(eta2) < 2.4 && ((abs(eta1) < 1.4 || abs(eta1) > 1.6) && (abs(eta2) < 1.4 || abs(eta2) > 1.6)) && deltaR > 0.3 && p4.M() > 20) && ( (runNr > 254230 && runNr < 254833) || runNr > 254852 || runNr ==1) )*(ht > 100 && ht < 300)*(p4.M() > 20)'
p151
sg8
L38L
sg9
F5.477225575051661
sg10
F7.681145747868608
sg11
L30L
sg12
F6.164414002968976
sssS'pt3030'
p152
(dp153
g3
(dp154
g5
L7L
sg6
S'genWeight*weight*(((nJets >= 2 && met > 150) || (nJets >= 3 && met > 100)) && abs(eta1) < 1.4 && abs(eta2) < 1.4 && ( chargeProduct < 0 && pt1 > 20 && pt2 > 20  && abs(eta1)<2.4  && abs(eta2) < 2.4 && ((abs(eta1) < 1.4 || abs(eta1) > 1.6) && (abs(eta2) < 1.4 || abs(eta2) > 1.6)) && deltaR > 0.3 && p4.M() > 20) && ( (runNr > 254230 && runNr < 254833) || runNr > 254852 || runNr ==1) )*(pt1 > 30 && pt2 > 30)*(p4.M()> 81 && p4.M() < 101)'
p155
sg8
L8L
sg9
F2.0
sg10
F2.6457513110645907
sg11
L4L
sg12
F2.8284271247461903
ssg13
(dp156
g5
L13L
sg6
S'genWeight*weight*(((nJets >= 2 && met > 150) || (nJets >= 3 && met > 100)) && abs(eta1) < 1.4 && abs(eta2) < 1.4 && ( chargeProduct < 0 && pt1 > 20 && pt2 > 20  && abs(eta1)<2.4  && abs(eta2) < 2.4 && ((abs(eta1) < 1.4 || abs(eta1) > 1.6) && (abs(eta2) < 1.4 || abs(eta2) > 1.6)) && deltaR > 0.3 && p4.M() > 20) && ( (runNr > 254230 && runNr < 254833) || runNr > 254852 || runNr ==1) )*(pt1 > 30 && pt2 > 30)*(p4.M()> 20 && p4.M() < 70)'
p157
sg8
L10L
sg9
F2.449489742783178
sg10
F3.605551275463989
sg11
L6L
sg12
F3.1622776601683795
ssg16
(dp158
g5
L37L
sg6
S'genWeight*weight*(((nJets >= 2 && met > 150) || (nJets >= 3 && met > 100)) && abs(eta1) < 1.4 && abs(eta2) < 1.4 && ( chargeProduct < 0 && pt1 > 20 && pt2 > 20  && abs(eta1)<2.4  && abs(eta2) < 2.4 && ((abs(eta1) < 1.4 || abs(eta1) > 1.6) && (abs(eta2) < 1.4 || abs(eta2) > 1.6)) && deltaR > 0.3 && p4.M() > 20) && ( (runNr > 254230 && runNr < 254833) || runNr > 254852 || runNr ==1) )*(pt1 > 30 && pt2 > 30)*(p4.M() > 120)'
p159
sg8
L13L
sg9
F4.795831523312719
sg10
F6.082762530298219
sg11
L23L
sg12
F3.605551275463989
ssg19
(dp160
g5
L71L
sg6
S'genWeight*weight*(((nJets >= 2 && met > 150) || (nJets >= 3 && met > 100)) && abs(eta1) < 1.4 && abs(eta2) < 1.4 && ( chargeProduct < 0 && pt1 > 20 && pt2 > 20  && abs(eta1)<2.4  && abs(eta2) < 2.4 && ((abs(eta1) < 1.4 || abs(eta1) > 1.6) && (abs(eta2) < 1.4 || abs(eta2) > 1.6)) && deltaR > 0.3 && p4.M() > 20) && ( (runNr > 254230 && runNr < 254833) || runNr > 254852 || runNr ==1) )*(pt1 > 30 && pt2 > 30)*(p4.M() > 20)'
p161
sg8
L40L
sg9
F6.708203932499369
sg10
F8.426149773176359
sg11
L45L
sg12
F6.324555320336759
sssS'midPU'
p162
(dp163
g3
(dp164
g5
L2L
sg6
S'genWeight*weight*(((nJets >= 2 && met > 150) || (nJets >= 3 && met > 100)) && abs(eta1) < 1.4 && abs(eta2) < 1.4 && ( chargeProduct < 0 && pt1 > 20 && pt2 > 20  && abs(eta1)<2.4  && abs(eta2) < 2.4 && ((abs(eta1) < 1.4 || abs(eta1) > 1.6) && (abs(eta2) < 1.4 || abs(eta2) > 1.6)) && deltaR > 0.3 && p4.M() > 20) && ( (runNr > 254230 && runNr < 254833) || runNr > 254852 || runNr ==1) )*(nVertices >= 13 && nVertices < 17)*(p4.M()> 81 && p4.M() < 101)'
p165
sg8
L1L
sg9
F1.0
sg10
F1.4142135623730951
sg11
L1L
sg12
F1.0
ssg13
(dp166
g5
L6L
sg6
S'genWeight*weight*(((nJets >= 2 && met > 150) || (nJets >= 3 && met > 100)) && abs(eta1) < 1.4 && abs(eta2) < 1.4 && ( chargeProduct < 0 && pt1 > 20 && pt2 > 20  && abs(eta1)<2.4  && abs(eta2) < 2.4 && ((abs(eta1) < 1.4 || abs(eta1) > 1.6) && (abs(eta2) < 1.4 || abs(eta2) > 1.6)) && deltaR > 0.3 && p4.M() > 20) && ( (runNr > 254230 && runNr < 254833) || runNr > 254852 || runNr ==1) )*(nVertices >= 13 && nVertices < 17)*(p4.M()> 20 && p4.M() < 70)'
p167
sg8
L5L
sg9
F2.23606797749979
sg10
F2.449489742783178
sg11
L5L
sg12
F2.23606797749979
ssg16
(dp168
g5
L4L
sg6
S'genWeight*weight*(((nJets >= 2 && met > 150) || (nJets >= 3 && met > 100)) && abs(eta1) < 1.4 && abs(eta2) < 1.4 && ( chargeProduct < 0 && pt1 > 20 && pt2 > 20  && abs(eta1)<2.4  && abs(eta2) < 2.4 && ((abs(eta1) < 1.4 || abs(eta1) > 1.6) && (abs(eta2) < 1.4 || abs(eta2) > 1.6)) && deltaR > 0.3 && p4.M() > 20) && ( (runNr > 254230 && runNr < 254833) || runNr > 254852 || runNr ==1) )*(nVertices >= 13 && nVertices < 17)*(p4.M() > 120)'
p169
sg8
L1L
sg9
F1.4142135623730951
sg10
F2.0
sg11
L2L
sg12
F1.0
ssg19
(dp170
g5
L14L
sg6
S'genWeight*weight*(((nJets >= 2 && met > 150) || (nJets >= 3 && met > 100)) && abs(eta1) < 1.4 && abs(eta2) < 1.4 && ( chargeProduct < 0 && pt1 > 20 && pt2 > 20  && abs(eta1)<2.4  && abs(eta2) < 2.4 && ((abs(eta1) < 1.4 || abs(eta1) > 1.6) && (abs(eta2) < 1.4 || abs(eta2) > 1.6)) && deltaR > 0.3 && p4.M() > 20) && ( (runNr > 254230 && runNr < 254833) || runNr > 254852 || runNr ==1) )*(nVertices >= 13 && nVertices < 17)*(p4.M() > 20)'
p171
sg8
L14L
sg9
F3.4641016151377544
sg10
F3.7416573867739413
sg11
L12L
sg12
F3.7416573867739413
sss.