(dp0
S'OneBTags'
p1
(dp2
S'zMass'
p3
(dp4
S'MM'
p5
L41L
sS'EE'
p6
L32L
sS'cut'
p7
S'weight*(((nJets >= 2 && met > 150) || (nJets>=3 && met > 100)) &&  1.6 <= TMath::Max(abs(eta1),abs(eta2)) && ( chargeProduct < 0 && pt1 > 20 && pt2 > 20 && abs(eta1)<2.4  && abs(eta2) < 2.4 && ((abs(eta1) < 1.4 || abs(eta1) > 1.6) && (abs(eta2) < 1.4 || abs(eta2) > 1.6)) && p4.M() > 20 && deltaR > 0.3) && runNr < 99999999)*(nBJets == 1)*(p4.M()> 81 && p4.M() < 101)'
p8
sS'EM'
p9
L56L
ssS'edgeMass'
p10
(dp11
g5
L36L
sg6
L20L
sg7
S'weight*(((nJets >= 2 && met > 150) || (nJets>=3 && met > 100)) &&  1.6 <= TMath::Max(abs(eta1),abs(eta2)) && ( chargeProduct < 0 && pt1 > 20 && pt2 > 20 && abs(eta1)<2.4  && abs(eta2) < 2.4 && ((abs(eta1) < 1.4 || abs(eta1) > 1.6) && (abs(eta2) < 1.4 || abs(eta2) > 1.6)) && p4.M() > 20 && deltaR > 0.3) && runNr < 99999999)*(nBJets == 1)*(p4.M()> 20 && p4.M() < 70)'
p12
sg9
L50L
ssS'highMass'
p13
(dp14
g5
L89L
sg6
L85L
sg7
S'weight*(((nJets >= 2 && met > 150) || (nJets>=3 && met > 100)) &&  1.6 <= TMath::Max(abs(eta1),abs(eta2)) && ( chargeProduct < 0 && pt1 > 20 && pt2 > 20 && abs(eta1)<2.4  && abs(eta2) < 2.4 && ((abs(eta1) < 1.4 || abs(eta1) > 1.6) && (abs(eta2) < 1.4 || abs(eta2) > 1.6)) && p4.M() > 20 && deltaR > 0.3) && runNr < 99999999)*(nBJets == 1)*(p4.M() > 120)'
p15
sg9
L180L
ssS'fullMassRange'
p16
(dp17
g5
L207L
sg6
L171L
sg7
S'weight*(((nJets >= 2 && met > 150) || (nJets>=3 && met > 100)) &&  1.6 <= TMath::Max(abs(eta1),abs(eta2)) && ( chargeProduct < 0 && pt1 > 20 && pt2 > 20 && abs(eta1)<2.4  && abs(eta2) < 2.4 && ((abs(eta1) < 1.4 || abs(eta1) > 1.6) && (abs(eta2) < 1.4 || abs(eta2) > 1.6)) && p4.M() > 20 && deltaR > 0.3) && runNr < 99999999)*(nBJets == 1)*(p4.M() > 20)'
p18
sg9
L358L
sssS'ht100to300'
p19
(dp20
g3
(dp21
g5
L49L
sg6
L35L
sg7
S'weight*(((nJets >= 2 && met > 150) || (nJets>=3 && met > 100)) &&  1.6 <= TMath::Max(abs(eta1),abs(eta2)) && ( chargeProduct < 0 && pt1 > 20 && pt2 > 20 && abs(eta1)<2.4  && abs(eta2) < 2.4 && ((abs(eta1) < 1.4 || abs(eta1) > 1.6) && (abs(eta2) < 1.4 || abs(eta2) > 1.6)) && p4.M() > 20 && deltaR > 0.3) && runNr < 99999999)*(ht > 100 && ht < 300)*(p4.M()> 81 && p4.M() < 101)'
p22
sg9
L84L
ssg10
(dp23
g5
L55L
sg6
L28L
sg7
S'weight*(((nJets >= 2 && met > 150) || (nJets>=3 && met > 100)) &&  1.6 <= TMath::Max(abs(eta1),abs(eta2)) && ( chargeProduct < 0 && pt1 > 20 && pt2 > 20 && abs(eta1)<2.4  && abs(eta2) < 2.4 && ((abs(eta1) < 1.4 || abs(eta1) > 1.6) && (abs(eta2) < 1.4 || abs(eta2) > 1.6)) && p4.M() > 20 && deltaR > 0.3) && runNr < 99999999)*(ht > 100 && ht < 300)*(p4.M()> 20 && p4.M() < 70)'
p24
sg9
L73L
ssg13
(dp25
g5
L101L
sg6
L105L
sg7
S'weight*(((nJets >= 2 && met > 150) || (nJets>=3 && met > 100)) &&  1.6 <= TMath::Max(abs(eta1),abs(eta2)) && ( chargeProduct < 0 && pt1 > 20 && pt2 > 20 && abs(eta1)<2.4  && abs(eta2) < 2.4 && ((abs(eta1) < 1.4 || abs(eta1) > 1.6) && (abs(eta2) < 1.4 || abs(eta2) > 1.6)) && p4.M() > 20 && deltaR > 0.3) && runNr < 99999999)*(ht > 100 && ht < 300)*(p4.M() > 120)'
p26
sg9
L233L
ssg16
(dp27
g5
L268L
sg6
L210L
sg7
S'weight*(((nJets >= 2 && met > 150) || (nJets>=3 && met > 100)) &&  1.6 <= TMath::Max(abs(eta1),abs(eta2)) && ( chargeProduct < 0 && pt1 > 20 && pt2 > 20 && abs(eta1)<2.4  && abs(eta2) < 2.4 && ((abs(eta1) < 1.4 || abs(eta1) > 1.6) && (abs(eta2) < 1.4 || abs(eta2) > 1.6)) && p4.M() > 20 && deltaR > 0.3) && runNr < 99999999)*(ht > 100 && ht < 300)*(p4.M() > 20)'
p28
sg9
L496L
sssS'geOneBTags'
p29
(dp30
g3
(dp31
g5
L61L
sg6
L49L
sg7
S'weight*(((nJets >= 2 && met > 150) || (nJets>=3 && met > 100)) &&  1.6 <= TMath::Max(abs(eta1),abs(eta2)) && ( chargeProduct < 0 && pt1 > 20 && pt2 > 20 && abs(eta1)<2.4  && abs(eta2) < 2.4 && ((abs(eta1) < 1.4 || abs(eta1) > 1.6) && (abs(eta2) < 1.4 || abs(eta2) > 1.6)) && p4.M() > 20 && deltaR > 0.3) && runNr < 99999999)*(nBJets >= 1)*(p4.M()> 81 && p4.M() < 101)'
p32
sg9
L100L
ssg10
(dp33
g5
L66L
sg6
L39L
sg7
S'weight*(((nJets >= 2 && met > 150) || (nJets>=3 && met > 100)) &&  1.6 <= TMath::Max(abs(eta1),abs(eta2)) && ( chargeProduct < 0 && pt1 > 20 && pt2 > 20 && abs(eta1)<2.4  && abs(eta2) < 2.4 && ((abs(eta1) < 1.4 || abs(eta1) > 1.6) && (abs(eta2) < 1.4 || abs(eta2) > 1.6)) && p4.M() > 20 && deltaR > 0.3) && runNr < 99999999)*(nBJets >= 1)*(p4.M()> 20 && p4.M() < 70)'
p34
sg9
L88L
ssg13
(dp35
g5
L145L
sg6
L156L
sg7
S'weight*(((nJets >= 2 && met > 150) || (nJets>=3 && met > 100)) &&  1.6 <= TMath::Max(abs(eta1),abs(eta2)) && ( chargeProduct < 0 && pt1 > 20 && pt2 > 20 && abs(eta1)<2.4  && abs(eta2) < 2.4 && ((abs(eta1) < 1.4 || abs(eta1) > 1.6) && (abs(eta2) < 1.4 || abs(eta2) > 1.6)) && p4.M() > 20 && deltaR > 0.3) && runNr < 99999999)*(nBJets >= 1)*(p4.M() > 120)'
p36
sg9
L291L
ssg16
(dp37
g5
L349L
sg6
L296L
sg7
S'weight*(((nJets >= 2 && met > 150) || (nJets>=3 && met > 100)) &&  1.6 <= TMath::Max(abs(eta1),abs(eta2)) && ( chargeProduct < 0 && pt1 > 20 && pt2 > 20 && abs(eta1)<2.4  && abs(eta2) < 2.4 && ((abs(eta1) < 1.4 || abs(eta1) > 1.6) && (abs(eta2) < 1.4 || abs(eta2) > 1.6)) && p4.M() > 20 && deltaR > 0.3) && runNr < 99999999)*(nBJets >= 1)*(p4.M() > 20)'
p38
sg9
L605L
sssS'lowPU'
p39
(dp40
g3
(dp41
g5
L43L
sg6
L28L
sg7
S'weight*(((nJets >= 2 && met > 150) || (nJets>=3 && met > 100)) &&  1.6 <= TMath::Max(abs(eta1),abs(eta2)) && ( chargeProduct < 0 && pt1 > 20 && pt2 > 20 && abs(eta1)<2.4  && abs(eta2) < 2.4 && ((abs(eta1) < 1.4 || abs(eta1) > 1.6) && (abs(eta2) < 1.4 || abs(eta2) > 1.6)) && p4.M() > 20 && deltaR > 0.3) && runNr < 99999999)*(nVertices < 13)*(p4.M()> 81 && p4.M() < 101)'
p42
sg9
L46L
ssg10
(dp43
g5
L31L
sg6
L17L
sg7
S'weight*(((nJets >= 2 && met > 150) || (nJets>=3 && met > 100)) &&  1.6 <= TMath::Max(abs(eta1),abs(eta2)) && ( chargeProduct < 0 && pt1 > 20 && pt2 > 20 && abs(eta1)<2.4  && abs(eta2) < 2.4 && ((abs(eta1) < 1.4 || abs(eta1) > 1.6) && (abs(eta2) < 1.4 || abs(eta2) > 1.6)) && p4.M() > 20 && deltaR > 0.3) && runNr < 99999999)*(nVertices < 13)*(p4.M()> 20 && p4.M() < 70)'
p44
sg9
L51L
ssg13
(dp45
g5
L60L
sg6
L71L
sg7
S'weight*(((nJets >= 2 && met > 150) || (nJets>=3 && met > 100)) &&  1.6 <= TMath::Max(abs(eta1),abs(eta2)) && ( chargeProduct < 0 && pt1 > 20 && pt2 > 20 && abs(eta1)<2.4  && abs(eta2) < 2.4 && ((abs(eta1) < 1.4 || abs(eta1) > 1.6) && (abs(eta2) < 1.4 || abs(eta2) > 1.6)) && p4.M() > 20 && deltaR > 0.3) && runNr < 99999999)*(nVertices < 13)*(p4.M() > 120)'
p46
sg9
L159L
ssg16
(dp47
g5
L178L
sg6
L153L
sg7
S'weight*(((nJets >= 2 && met > 150) || (nJets>=3 && met > 100)) &&  1.6 <= TMath::Max(abs(eta1),abs(eta2)) && ( chargeProduct < 0 && pt1 > 20 && pt2 > 20 && abs(eta1)<2.4  && abs(eta2) < 2.4 && ((abs(eta1) < 1.4 || abs(eta1) > 1.6) && (abs(eta2) < 1.4 || abs(eta2) > 1.6)) && p4.M() > 20 && deltaR > 0.3) && runNr < 99999999)*(nVertices < 13)*(p4.M() > 20)'
p48
sg9
L325L
sssS'default'
p49
(dp50
g3
(dp51
g5
L90L
sg6
L86L
sg7
S'weight*(((nJets >= 2 && met > 150) || (nJets>=3 && met > 100)) &&  1.6 <= TMath::Max(abs(eta1),abs(eta2)) && ( chargeProduct < 0 && pt1 > 20 && pt2 > 20 && abs(eta1)<2.4  && abs(eta2) < 2.4 && ((abs(eta1) < 1.4 || abs(eta1) > 1.6) && (abs(eta2) < 1.4 || abs(eta2) > 1.6)) && p4.M() > 20 && deltaR > 0.3) && runNr < 99999999)*(p4.M()> 81 && p4.M() < 101)'
p52
sg9
L131L
ssg10
(dp53
g5
L101L
sg6
L53L
sg7
S'weight*(((nJets >= 2 && met > 150) || (nJets>=3 && met > 100)) &&  1.6 <= TMath::Max(abs(eta1),abs(eta2)) && ( chargeProduct < 0 && pt1 > 20 && pt2 > 20 && abs(eta1)<2.4  && abs(eta2) < 2.4 && ((abs(eta1) < 1.4 || abs(eta1) > 1.6) && (abs(eta2) < 1.4 || abs(eta2) > 1.6)) && p4.M() > 20 && deltaR > 0.3) && runNr < 99999999)*(p4.M()> 20 && p4.M() < 70)'
p54
sg9
L138L
ssg13
(dp55
g5
L186L
sg6
L195L
sg7
S'weight*(((nJets >= 2 && met > 150) || (nJets>=3 && met > 100)) &&  1.6 <= TMath::Max(abs(eta1),abs(eta2)) && ( chargeProduct < 0 && pt1 > 20 && pt2 > 20 && abs(eta1)<2.4  && abs(eta2) < 2.4 && ((abs(eta1) < 1.4 || abs(eta1) > 1.6) && (abs(eta2) < 1.4 || abs(eta2) > 1.6)) && p4.M() > 20 && deltaR > 0.3) && runNr < 99999999)*(p4.M() > 120)'
p56
sg9
L393L
ssg16
(dp57
g5
L479L
sg6
L408L
sg7
S'weight*(((nJets >= 2 && met > 150) || (nJets>=3 && met > 100)) &&  1.6 <= TMath::Max(abs(eta1),abs(eta2)) && ( chargeProduct < 0 && pt1 > 20 && pt2 > 20 && abs(eta1)<2.4  && abs(eta2) < 2.4 && ((abs(eta1) < 1.4 || abs(eta1) > 1.6) && (abs(eta2) < 1.4 || abs(eta2) > 1.6)) && p4.M() > 20 && deltaR > 0.3) && runNr < 99999999)*(p4.M() > 20)'
p58
sg9
L840L
sssS'pt3020'
p59
(dp60
g3
(dp61
g5
L89L
sg6
L84L
sg7
S'weight*(((nJets >= 2 && met > 150) || (nJets>=3 && met > 100)) &&  1.6 <= TMath::Max(abs(eta1),abs(eta2)) && ( chargeProduct < 0 &&  abs(eta1)<2.4  && abs(eta2) < 2.4 && ((abs(eta1) < 1.4 || abs(eta1) > 1.6) && (abs(eta2) < 1.4 || abs(eta2) > 1.6)) && p4.M() > 20 && deltaR > 0.3) && runNr < 99999999)*(((pt1 > 30 && pt2 > 20)||(pt1 > 20 && pt2 > 30)))*(p4.M()> 81 && p4.M() < 101)'
p62
sg9
L124L
ssg10
(dp63
g5
L84L
sg6
L48L
sg7
S'weight*(((nJets >= 2 && met > 150) || (nJets>=3 && met > 100)) &&  1.6 <= TMath::Max(abs(eta1),abs(eta2)) && ( chargeProduct < 0 &&  abs(eta1)<2.4  && abs(eta2) < 2.4 && ((abs(eta1) < 1.4 || abs(eta1) > 1.6) && (abs(eta2) < 1.4 || abs(eta2) > 1.6)) && p4.M() > 20 && deltaR > 0.3) && runNr < 99999999)*(((pt1 > 30 && pt2 > 20)||(pt1 > 20 && pt2 > 30)))*(p4.M()> 20 && p4.M() < 70)'
p64
sg9
L112L
ssg13
(dp65
g5
L183L
sg6
L191L
sg7
S'weight*(((nJets >= 2 && met > 150) || (nJets>=3 && met > 100)) &&  1.6 <= TMath::Max(abs(eta1),abs(eta2)) && ( chargeProduct < 0 &&  abs(eta1)<2.4  && abs(eta2) < 2.4 && ((abs(eta1) < 1.4 || abs(eta1) > 1.6) && (abs(eta2) < 1.4 || abs(eta2) > 1.6)) && p4.M() > 20 && deltaR > 0.3) && runNr < 99999999)*(((pt1 > 30 && pt2 > 20)||(pt1 > 20 && pt2 > 30)))*(p4.M() > 120)'
p66
sg9
L389L
ssg16
(dp67
g5
L456L
sg6
L393L
sg7
S'weight*(((nJets >= 2 && met > 150) || (nJets>=3 && met > 100)) &&  1.6 <= TMath::Max(abs(eta1),abs(eta2)) && ( chargeProduct < 0 &&  abs(eta1)<2.4  && abs(eta2) < 2.4 && ((abs(eta1) < 1.4 || abs(eta1) > 1.6) && (abs(eta2) < 1.4 || abs(eta2) > 1.6)) && p4.M() > 20 && deltaR > 0.3) && runNr < 99999999)*(((pt1 > 30 && pt2 > 20)||(pt1 > 20 && pt2 > 30)))*(p4.M() > 20)'
p68
sg9
L794L
sssS'ht300'
p69
(dp70
g3
(dp71
g5
L41L
sg6
L50L
sg7
S'weight*(((nJets >= 2 && met > 150) || (nJets>=3 && met > 100)) &&  1.6 <= TMath::Max(abs(eta1),abs(eta2)) && ( chargeProduct < 0 && pt1 > 20 && pt2 > 20 && abs(eta1)<2.4  && abs(eta2) < 2.4 && ((abs(eta1) < 1.4 || abs(eta1) > 1.6) && (abs(eta2) < 1.4 || abs(eta2) > 1.6)) && p4.M() > 20 && deltaR > 0.3) && runNr < 99999999)*(ht > 300)*(p4.M()> 81 && p4.M() < 101)'
p72
sg9
L47L
ssg10
(dp73
g5
L46L
sg6
L25L
sg7
S'weight*(((nJets >= 2 && met > 150) || (nJets>=3 && met > 100)) &&  1.6 <= TMath::Max(abs(eta1),abs(eta2)) && ( chargeProduct < 0 && pt1 > 20 && pt2 > 20 && abs(eta1)<2.4  && abs(eta2) < 2.4 && ((abs(eta1) < 1.4 || abs(eta1) > 1.6) && (abs(eta2) < 1.4 || abs(eta2) > 1.6)) && p4.M() > 20 && deltaR > 0.3) && runNr < 99999999)*(ht > 300)*(p4.M()> 20 && p4.M() < 70)'
p74
sg9
L65L
ssg13
(dp75
g5
L85L
sg6
L90L
sg7
S'weight*(((nJets >= 2 && met > 150) || (nJets>=3 && met > 100)) &&  1.6 <= TMath::Max(abs(eta1),abs(eta2)) && ( chargeProduct < 0 && pt1 > 20 && pt2 > 20 && abs(eta1)<2.4  && abs(eta2) < 2.4 && ((abs(eta1) < 1.4 || abs(eta1) > 1.6) && (abs(eta2) < 1.4 || abs(eta2) > 1.6)) && p4.M() > 20 && deltaR > 0.3) && runNr < 99999999)*(ht > 300)*(p4.M() > 120)'
p76
sg9
L158L
ssg16
(dp77
g5
L211L
sg6
L197L
sg7
S'weight*(((nJets >= 2 && met > 150) || (nJets>=3 && met > 100)) &&  1.6 <= TMath::Max(abs(eta1),abs(eta2)) && ( chargeProduct < 0 && pt1 > 20 && pt2 > 20 && abs(eta1)<2.4  && abs(eta2) < 2.4 && ((abs(eta1) < 1.4 || abs(eta1) > 1.6) && (abs(eta2) < 1.4 || abs(eta2) > 1.6)) && p4.M() > 20 && deltaR > 0.3) && runNr < 99999999)*(ht > 300)*(p4.M() > 20)'
p78
sg9
L341L
sssS'highPU'
p79
(dp80
g3
(dp81
g5
L31L
sg6
L31L
sg7
S'weight*(((nJets >= 2 && met > 150) || (nJets>=3 && met > 100)) &&  1.6 <= TMath::Max(abs(eta1),abs(eta2)) && ( chargeProduct < 0 && pt1 > 20 && pt2 > 20 && abs(eta1)<2.4  && abs(eta2) < 2.4 && ((abs(eta1) < 1.4 || abs(eta1) > 1.6) && (abs(eta2) < 1.4 || abs(eta2) > 1.6)) && p4.M() > 20 && deltaR > 0.3) && runNr < 99999999)*(nVertices >= 17)*(p4.M()> 81 && p4.M() < 101)'
p82
sg9
L46L
ssg10
(dp83
g5
L39L
sg6
L23L
sg7
S'weight*(((nJets >= 2 && met > 150) || (nJets>=3 && met > 100)) &&  1.6 <= TMath::Max(abs(eta1),abs(eta2)) && ( chargeProduct < 0 && pt1 > 20 && pt2 > 20 && abs(eta1)<2.4  && abs(eta2) < 2.4 && ((abs(eta1) < 1.4 || abs(eta1) > 1.6) && (abs(eta2) < 1.4 || abs(eta2) > 1.6)) && p4.M() > 20 && deltaR > 0.3) && runNr < 99999999)*(nVertices >= 17)*(p4.M()> 20 && p4.M() < 70)'
p84
sg9
L49L
ssg13
(dp85
g5
L66L
sg6
L71L
sg7
S'weight*(((nJets >= 2 && met > 150) || (nJets>=3 && met > 100)) &&  1.6 <= TMath::Max(abs(eta1),abs(eta2)) && ( chargeProduct < 0 && pt1 > 20 && pt2 > 20 && abs(eta1)<2.4  && abs(eta2) < 2.4 && ((abs(eta1) < 1.4 || abs(eta1) > 1.6) && (abs(eta2) < 1.4 || abs(eta2) > 1.6)) && p4.M() > 20 && deltaR > 0.3) && runNr < 99999999)*(nVertices >= 17)*(p4.M() > 120)'
p86
sg9
L118L
ssg16
(dp87
g5
L158L
sg6
L147L
sg7
S'weight*(((nJets >= 2 && met > 150) || (nJets>=3 && met > 100)) &&  1.6 <= TMath::Max(abs(eta1),abs(eta2)) && ( chargeProduct < 0 && pt1 > 20 && pt2 > 20 && abs(eta1)<2.4  && abs(eta2) < 2.4 && ((abs(eta1) < 1.4 || abs(eta1) > 1.6) && (abs(eta2) < 1.4 || abs(eta2) > 1.6)) && p4.M() > 20 && deltaR > 0.3) && runNr < 99999999)*(nVertices >= 17)*(p4.M() > 20)'
p88
sg9
L274L
sssS'tcMet'
p89
(dp90
g3
(dp91
g5
L113L
sg6
L70L
sg7
S'weight*(((nJets >= 2 && tcMet > 150) || (nJets>=3 && tcMet > 100)) &&  1.6 <= TMath::Max(abs(eta1),abs(eta2)) && ( chargeProduct < 0 && pt1 > 20 && pt2 > 20 && abs(eta1)<2.4  && abs(eta2) < 2.4 && ((abs(eta1) < 1.4 || abs(eta1) > 1.6) && (abs(eta2) < 1.4 || abs(eta2) > 1.6)) && p4.M() > 20 && deltaR > 0.3) && runNr < 99999999)*(p4.M()> 81 && p4.M() < 101)'
p92
sg9
L111L
ssg10
(dp93
g5
L91L
sg6
L52L
sg7
S'weight*(((nJets >= 2 && tcMet > 150) || (nJets>=3 && tcMet > 100)) &&  1.6 <= TMath::Max(abs(eta1),abs(eta2)) && ( chargeProduct < 0 && pt1 > 20 && pt2 > 20 && abs(eta1)<2.4  && abs(eta2) < 2.4 && ((abs(eta1) < 1.4 || abs(eta1) > 1.6) && (abs(eta2) < 1.4 || abs(eta2) > 1.6)) && p4.M() > 20 && deltaR > 0.3) && runNr < 99999999)*(p4.M()> 20 && p4.M() < 70)'
p94
sg9
L134L
ssg13
(dp95
g5
L196L
sg6
L189L
sg7
S'weight*(((nJets >= 2 && tcMet > 150) || (nJets>=3 && tcMet > 100)) &&  1.6 <= TMath::Max(abs(eta1),abs(eta2)) && ( chargeProduct < 0 && pt1 > 20 && pt2 > 20 && abs(eta1)<2.4  && abs(eta2) < 2.4 && ((abs(eta1) < 1.4 || abs(eta1) > 1.6) && (abs(eta2) < 1.4 || abs(eta2) > 1.6)) && p4.M() > 20 && deltaR > 0.3) && runNr < 99999999)*(p4.M() > 120)'
p96
sg9
L376L
ssg16
(dp97
g5
L500L
sg6
L377L
sg7
S'weight*(((nJets >= 2 && tcMet > 150) || (nJets>=3 && tcMet > 100)) &&  1.6 <= TMath::Max(abs(eta1),abs(eta2)) && ( chargeProduct < 0 && pt1 > 20 && pt2 > 20 && abs(eta1)<2.4  && abs(eta2) < 2.4 && ((abs(eta1) < 1.4 || abs(eta1) > 1.6) && (abs(eta2) < 1.4 || abs(eta2) > 1.6)) && p4.M() > 20 && deltaR > 0.3) && runNr < 99999999)*(p4.M() > 20)'
p98
sg9
L772L
sssS'geTwoBTags'
p99
(dp100
g3
(dp101
g5
L20L
sg6
L17L
sg7
S'weight*(((nJets >= 2 && met > 150) || (nJets>=3 && met > 100)) &&  1.6 <= TMath::Max(abs(eta1),abs(eta2)) && ( chargeProduct < 0 && pt1 > 20 && pt2 > 20 && abs(eta1)<2.4  && abs(eta2) < 2.4 && ((abs(eta1) < 1.4 || abs(eta1) > 1.6) && (abs(eta2) < 1.4 || abs(eta2) > 1.6)) && p4.M() > 20 && deltaR > 0.3) && runNr < 99999999)*(nBJets >= 2)*(p4.M()> 81 && p4.M() < 101)'
p102
sg9
L44L
ssg10
(dp103
g5
L30L
sg6
L19L
sg7
S'weight*(((nJets >= 2 && met > 150) || (nJets>=3 && met > 100)) &&  1.6 <= TMath::Max(abs(eta1),abs(eta2)) && ( chargeProduct < 0 && pt1 > 20 && pt2 > 20 && abs(eta1)<2.4  && abs(eta2) < 2.4 && ((abs(eta1) < 1.4 || abs(eta1) > 1.6) && (abs(eta2) < 1.4 || abs(eta2) > 1.6)) && p4.M() > 20 && deltaR > 0.3) && runNr < 99999999)*(nBJets >= 2)*(p4.M()> 20 && p4.M() < 70)'
p104
sg9
L38L
ssg13
(dp105
g5
L56L
sg6
L71L
sg7
S'weight*(((nJets >= 2 && met > 150) || (nJets>=3 && met > 100)) &&  1.6 <= TMath::Max(abs(eta1),abs(eta2)) && ( chargeProduct < 0 && pt1 > 20 && pt2 > 20 && abs(eta1)<2.4  && abs(eta2) < 2.4 && ((abs(eta1) < 1.4 || abs(eta1) > 1.6) && (abs(eta2) < 1.4 || abs(eta2) > 1.6)) && p4.M() > 20 && deltaR > 0.3) && runNr < 99999999)*(nBJets >= 2)*(p4.M() > 120)'
p106
sg9
L111L
ssg16
(dp107
g5
L142L
sg6
L125L
sg7
S'weight*(((nJets >= 2 && met > 150) || (nJets>=3 && met > 100)) &&  1.6 <= TMath::Max(abs(eta1),abs(eta2)) && ( chargeProduct < 0 && pt1 > 20 && pt2 > 20 && abs(eta1)<2.4  && abs(eta2) < 2.4 && ((abs(eta1) < 1.4 || abs(eta1) > 1.6) && (abs(eta2) < 1.4 || abs(eta2) > 1.6)) && p4.M() > 20 && deltaR > 0.3) && runNr < 99999999)*(nBJets >= 2)*(p4.M() > 20)'
p108
sg9
L247L
sssS'TwoBTags'
p109
(dp110
g3
(dp111
g5
L19L
sg6
L15L
sg7
S'weight*(((nJets >= 2 && met > 150) || (nJets>=3 && met > 100)) &&  1.6 <= TMath::Max(abs(eta1),abs(eta2)) && ( chargeProduct < 0 && pt1 > 20 && pt2 > 20 && abs(eta1)<2.4  && abs(eta2) < 2.4 && ((abs(eta1) < 1.4 || abs(eta1) > 1.6) && (abs(eta2) < 1.4 || abs(eta2) > 1.6)) && p4.M() > 20 && deltaR > 0.3) && runNr < 99999999)*(nBJets == 2)*(p4.M()> 81 && p4.M() < 101)'
p112
sg9
L42L
ssg10
(dp113
g5
L28L
sg6
L18L
sg7
S'weight*(((nJets >= 2 && met > 150) || (nJets>=3 && met > 100)) &&  1.6 <= TMath::Max(abs(eta1),abs(eta2)) && ( chargeProduct < 0 && pt1 > 20 && pt2 > 20 && abs(eta1)<2.4  && abs(eta2) < 2.4 && ((abs(eta1) < 1.4 || abs(eta1) > 1.6) && (abs(eta2) < 1.4 || abs(eta2) > 1.6)) && p4.M() > 20 && deltaR > 0.3) && runNr < 99999999)*(nBJets == 2)*(p4.M()> 20 && p4.M() < 70)'
p114
sg9
L36L
ssg13
(dp115
g5
L52L
sg6
L68L
sg7
S'weight*(((nJets >= 2 && met > 150) || (nJets>=3 && met > 100)) &&  1.6 <= TMath::Max(abs(eta1),abs(eta2)) && ( chargeProduct < 0 && pt1 > 20 && pt2 > 20 && abs(eta1)<2.4  && abs(eta2) < 2.4 && ((abs(eta1) < 1.4 || abs(eta1) > 1.6) && (abs(eta2) < 1.4 || abs(eta2) > 1.6)) && p4.M() > 20 && deltaR > 0.3) && runNr < 99999999)*(nBJets == 2)*(p4.M() > 120)'
p116
sg9
L102L
ssg16
(dp117
g5
L134L
sg6
L119L
sg7
S'weight*(((nJets >= 2 && met > 150) || (nJets>=3 && met > 100)) &&  1.6 <= TMath::Max(abs(eta1),abs(eta2)) && ( chargeProduct < 0 && pt1 > 20 && pt2 > 20 && abs(eta1)<2.4  && abs(eta2) < 2.4 && ((abs(eta1) < 1.4 || abs(eta1) > 1.6) && (abs(eta2) < 1.4 || abs(eta2) > 1.6)) && p4.M() > 20 && deltaR > 0.3) && runNr < 99999999)*(nBJets == 2)*(p4.M() > 20)'
p118
sg9
L229L
sssS'pt3010'
p119
(dp120
g3
(dp121
g5
L139L
sg6
L97L
sg7
S'weight*(((nJets >= 2 && met > 150) || (nJets>=3 && met > 100)) &&  1.6 <= TMath::Max(abs(eta1),abs(eta2)) && ( chargeProduct < 0 &&  abs(eta1)<2.4  && abs(eta2) < 2.4 && ((abs(eta1) < 1.4 || abs(eta1) > 1.6) && (abs(eta2) < 1.4 || abs(eta2) > 1.6)) && p4.M() > 20 && deltaR > 0.3) && runNr < 99999999)*(((pt1 > 30 && pt2 > 10)||(pt1 > 10 && pt2 > 30)))*(p4.M()> 81 && p4.M() < 101)'
p122
sg9
L167L
ssg10
(dp123
g5
L202L
sg6
L84L
sg7
S'weight*(((nJets >= 2 && met > 150) || (nJets>=3 && met > 100)) &&  1.6 <= TMath::Max(abs(eta1),abs(eta2)) && ( chargeProduct < 0 &&  abs(eta1)<2.4  && abs(eta2) < 2.4 && ((abs(eta1) < 1.4 || abs(eta1) > 1.6) && (abs(eta2) < 1.4 || abs(eta2) > 1.6)) && p4.M() > 20 && deltaR > 0.3) && runNr < 99999999)*(((pt1 > 30 && pt2 > 10)||(pt1 > 10 && pt2 > 30)))*(p4.M()> 20 && p4.M() < 70)'
p124
sg9
L262L
ssg13
(dp125
g5
L218L
sg6
L201L
sg7
S'weight*(((nJets >= 2 && met > 150) || (nJets>=3 && met > 100)) &&  1.6 <= TMath::Max(abs(eta1),abs(eta2)) && ( chargeProduct < 0 &&  abs(eta1)<2.4  && abs(eta2) < 2.4 && ((abs(eta1) < 1.4 || abs(eta1) > 1.6) && (abs(eta2) < 1.4 || abs(eta2) > 1.6)) && p4.M() > 20 && deltaR > 0.3) && runNr < 99999999)*(((pt1 > 30 && pt2 > 10)||(pt1 > 10 && pt2 > 30)))*(p4.M() > 120)'
p126
sg9
L439L
ssg16
(dp127
g5
L696L
sg6
L473L
sg7
S'weight*(((nJets >= 2 && met > 150) || (nJets>=3 && met > 100)) &&  1.6 <= TMath::Max(abs(eta1),abs(eta2)) && ( chargeProduct < 0 &&  abs(eta1)<2.4  && abs(eta2) < 2.4 && ((abs(eta1) < 1.4 || abs(eta1) > 1.6) && (abs(eta2) < 1.4 || abs(eta2) > 1.6)) && p4.M() > 20 && deltaR > 0.3) && runNr < 99999999)*(((pt1 > 30 && pt2 > 10)||(pt1 > 10 && pt2 > 30)))*(p4.M() > 20)'
p128
sg9
L1094L
sssS'TightIso'
p129
(dp130
g3
(dp131
g5
L74L
sg6
L55L
sg7
S'weight*(((nJets >= 2 && met > 150) || (nJets>=3 && met > 100)) &&  1.6 <= TMath::Max(abs(eta1),abs(eta2)) && ( chargeProduct < 0 && pt1 > 20 && pt2 > 20 && abs(eta1)<2.4  && abs(eta2) < 2.4 && ((abs(eta1) < 1.4 || abs(eta1) > 1.6) && (abs(eta2) < 1.4 || abs(eta2) > 1.6)) && p4.M() > 20 && deltaR > 0.3) && runNr < 99999999)*(id1 < 0.05 && id2 < 0.05)*(p4.M()> 81 && p4.M() < 101)'
p132
sg9
L98L
ssg10
(dp133
g5
L63L
sg6
L32L
sg7
S'weight*(((nJets >= 2 && met > 150) || (nJets>=3 && met > 100)) &&  1.6 <= TMath::Max(abs(eta1),abs(eta2)) && ( chargeProduct < 0 && pt1 > 20 && pt2 > 20 && abs(eta1)<2.4  && abs(eta2) < 2.4 && ((abs(eta1) < 1.4 || abs(eta1) > 1.6) && (abs(eta2) < 1.4 || abs(eta2) > 1.6)) && p4.M() > 20 && deltaR > 0.3) && runNr < 99999999)*(id1 < 0.05 && id2 < 0.05)*(p4.M()> 20 && p4.M() < 70)'
p134
sg9
L95L
ssg13
(dp135
g5
L143L
sg6
L145L
sg7
S'weight*(((nJets >= 2 && met > 150) || (nJets>=3 && met > 100)) &&  1.6 <= TMath::Max(abs(eta1),abs(eta2)) && ( chargeProduct < 0 && pt1 > 20 && pt2 > 20 && abs(eta1)<2.4  && abs(eta2) < 2.4 && ((abs(eta1) < 1.4 || abs(eta1) > 1.6) && (abs(eta2) < 1.4 || abs(eta2) > 1.6)) && p4.M() > 20 && deltaR > 0.3) && runNr < 99999999)*(id1 < 0.05 && id2 < 0.05)*(p4.M() > 120)'
p136
sg9
L306L
ssg16
(dp137
g5
L359L
sg6
L280L
sg7
S'weight*(((nJets >= 2 && met > 150) || (nJets>=3 && met > 100)) &&  1.6 <= TMath::Max(abs(eta1),abs(eta2)) && ( chargeProduct < 0 && pt1 > 20 && pt2 > 20 && abs(eta1)<2.4  && abs(eta2) < 2.4 && ((abs(eta1) < 1.4 || abs(eta1) > 1.6) && (abs(eta2) < 1.4 || abs(eta2) > 1.6)) && p4.M() > 20 && deltaR > 0.3) && runNr < 99999999)*(id1 < 0.05 && id2 < 0.05)*(p4.M() > 20)'
p138
sg9
L630L
sssS'noBTags'
p139
(dp140
g3
(dp141
g5
L29L
sg6
L37L
sg7
S'weight*(((nJets >= 2 && met > 150) || (nJets>=3 && met > 100)) &&  1.6 <= TMath::Max(abs(eta1),abs(eta2)) && ( chargeProduct < 0 && pt1 > 20 && pt2 > 20 && abs(eta1)<2.4  && abs(eta2) < 2.4 && ((abs(eta1) < 1.4 || abs(eta1) > 1.6) && (abs(eta2) < 1.4 || abs(eta2) > 1.6)) && p4.M() > 20 && deltaR > 0.3) && runNr < 99999999)*(nBJets == 0)*(p4.M()> 81 && p4.M() < 101)'
p142
sg9
L31L
ssg10
(dp143
g5
L35L
sg6
L14L
sg7
S'weight*(((nJets >= 2 && met > 150) || (nJets>=3 && met > 100)) &&  1.6 <= TMath::Max(abs(eta1),abs(eta2)) && ( chargeProduct < 0 && pt1 > 20 && pt2 > 20 && abs(eta1)<2.4  && abs(eta2) < 2.4 && ((abs(eta1) < 1.4 || abs(eta1) > 1.6) && (abs(eta2) < 1.4 || abs(eta2) > 1.6)) && p4.M() > 20 && deltaR > 0.3) && runNr < 99999999)*(nBJets == 0)*(p4.M()> 20 && p4.M() < 70)'
p144
sg9
L50L
ssg13
(dp145
g5
L41L
sg6
L39L
sg7
S'weight*(((nJets >= 2 && met > 150) || (nJets>=3 && met > 100)) &&  1.6 <= TMath::Max(abs(eta1),abs(eta2)) && ( chargeProduct < 0 && pt1 > 20 && pt2 > 20 && abs(eta1)<2.4  && abs(eta2) < 2.4 && ((abs(eta1) < 1.4 || abs(eta1) > 1.6) && (abs(eta2) < 1.4 || abs(eta2) > 1.6)) && p4.M() > 20 && deltaR > 0.3) && runNr < 99999999)*(nBJets == 0)*(p4.M() > 120)'
p146
sg9
L102L
ssg16
(dp147
g5
L130L
sg6
L112L
sg7
S'weight*(((nJets >= 2 && met > 150) || (nJets>=3 && met > 100)) &&  1.6 <= TMath::Max(abs(eta1),abs(eta2)) && ( chargeProduct < 0 && pt1 > 20 && pt2 > 20 && abs(eta1)<2.4  && abs(eta2) < 2.4 && ((abs(eta1) < 1.4 || abs(eta1) > 1.6) && (abs(eta2) < 1.4 || abs(eta2) > 1.6)) && p4.M() > 20 && deltaR > 0.3) && runNr < 99999999)*(nBJets == 0)*(p4.M() > 20)'
p148
sg9
L235L
sssS'caloMet'
p149
(dp150
g3
(dp151
g5
L113L
sg6
L70L
sg7
S'weight*(((nJets >= 2 && caloMet > 150) || (nJets>=3 && caloMet > 100)) &&  1.6 <= TMath::Max(abs(eta1),abs(eta2)) && ( chargeProduct < 0 && pt1 > 20 && pt2 > 20 && abs(eta1)<2.4  && abs(eta2) < 2.4 && ((abs(eta1) < 1.4 || abs(eta1) > 1.6) && (abs(eta2) < 1.4 || abs(eta2) > 1.6)) && p4.M() > 20 && deltaR > 0.3) && runNr < 99999999)*(p4.M()> 81 && p4.M() < 101)'
p152
sg9
L111L
ssg10
(dp153
g5
L91L
sg6
L52L
sg7
S'weight*(((nJets >= 2 && caloMet > 150) || (nJets>=3 && caloMet > 100)) &&  1.6 <= TMath::Max(abs(eta1),abs(eta2)) && ( chargeProduct < 0 && pt1 > 20 && pt2 > 20 && abs(eta1)<2.4  && abs(eta2) < 2.4 && ((abs(eta1) < 1.4 || abs(eta1) > 1.6) && (abs(eta2) < 1.4 || abs(eta2) > 1.6)) && p4.M() > 20 && deltaR > 0.3) && runNr < 99999999)*(p4.M()> 20 && p4.M() < 70)'
p154
sg9
L134L
ssg13
(dp155
g5
L196L
sg6
L189L
sg7
S'weight*(((nJets >= 2 && caloMet > 150) || (nJets>=3 && caloMet > 100)) &&  1.6 <= TMath::Max(abs(eta1),abs(eta2)) && ( chargeProduct < 0 && pt1 > 20 && pt2 > 20 && abs(eta1)<2.4  && abs(eta2) < 2.4 && ((abs(eta1) < 1.4 || abs(eta1) > 1.6) && (abs(eta2) < 1.4 || abs(eta2) > 1.6)) && p4.M() > 20 && deltaR > 0.3) && runNr < 99999999)*(p4.M() > 120)'
p156
sg9
L376L
ssg16
(dp157
g5
L500L
sg6
L377L
sg7
S'weight*(((nJets >= 2 && caloMet > 150) || (nJets>=3 && caloMet > 100)) &&  1.6 <= TMath::Max(abs(eta1),abs(eta2)) && ( chargeProduct < 0 && pt1 > 20 && pt2 > 20 && abs(eta1)<2.4  && abs(eta2) < 2.4 && ((abs(eta1) < 1.4 || abs(eta1) > 1.6) && (abs(eta2) < 1.4 || abs(eta2) > 1.6)) && p4.M() > 20 && deltaR > 0.3) && runNr < 99999999)*(p4.M() > 20)'
p158
sg9
L772L
sssS'type1Met'
p159
(dp160
g3
(dp161
g5
L108L
sg6
L97L
sg7
S'weight*(((nJets >= 2 && type1Met > 150) || (nJets>=3 && type1Met > 100)) &&  1.6 <= TMath::Max(abs(eta1),abs(eta2)) && ( chargeProduct < 0 && pt1 > 20 && pt2 > 20 && abs(eta1)<2.4  && abs(eta2) < 2.4 && ((abs(eta1) < 1.4 || abs(eta1) > 1.6) && (abs(eta2) < 1.4 || abs(eta2) > 1.6)) && p4.M() > 20 && deltaR > 0.3) && runNr < 99999999)*(p4.M()> 81 && p4.M() < 101)'
p162
sg9
L159L
ssg10
(dp163
g5
L121L
sg6
L70L
sg7
S'weight*(((nJets >= 2 && type1Met > 150) || (nJets>=3 && type1Met > 100)) &&  1.6 <= TMath::Max(abs(eta1),abs(eta2)) && ( chargeProduct < 0 && pt1 > 20 && pt2 > 20 && abs(eta1)<2.4  && abs(eta2) < 2.4 && ((abs(eta1) < 1.4 || abs(eta1) > 1.6) && (abs(eta2) < 1.4 || abs(eta2) > 1.6)) && p4.M() > 20 && deltaR > 0.3) && runNr < 99999999)*(p4.M()> 20 && p4.M() < 70)'
p164
sg9
L182L
ssg13
(dp165
g5
L226L
sg6
L236L
sg7
S'weight*(((nJets >= 2 && type1Met > 150) || (nJets>=3 && type1Met > 100)) &&  1.6 <= TMath::Max(abs(eta1),abs(eta2)) && ( chargeProduct < 0 && pt1 > 20 && pt2 > 20 && abs(eta1)<2.4  && abs(eta2) < 2.4 && ((abs(eta1) < 1.4 || abs(eta1) > 1.6) && (abs(eta2) < 1.4 || abs(eta2) > 1.6)) && p4.M() > 20 && deltaR > 0.3) && runNr < 99999999)*(p4.M() > 120)'
p166
sg9
L469L
ssg16
(dp167
g5
L580L
sg6
L492L
sg7
S'weight*(((nJets >= 2 && type1Met > 150) || (nJets>=3 && type1Met > 100)) &&  1.6 <= TMath::Max(abs(eta1),abs(eta2)) && ( chargeProduct < 0 && pt1 > 20 && pt2 > 20 && abs(eta1)<2.4  && abs(eta2) < 2.4 && ((abs(eta1) < 1.4 || abs(eta1) > 1.6) && (abs(eta2) < 1.4 || abs(eta2) > 1.6)) && p4.M() > 20 && deltaR > 0.3) && runNr < 99999999)*(p4.M() > 20)'
p168
sg9
L1023L
sssS'mht'
p169
(dp170
g3
(dp171
g5
L297L
sg6
L205L
sg7
S'weight*(((nJets >= 2 && mht > 150) || (nJets>=3 && mht > 100)) &&  1.6 <= TMath::Max(abs(eta1),abs(eta2)) && ( chargeProduct < 0 && pt1 > 20 && pt2 > 20 && abs(eta1)<2.4  && abs(eta2) < 2.4 && ((abs(eta1) < 1.4 || abs(eta1) > 1.6) && (abs(eta2) < 1.4 || abs(eta2) > 1.6)) && p4.M() > 20 && deltaR > 0.3) && runNr < 99999999)*(p4.M()> 81 && p4.M() < 101)'
p172
sg9
L156L
ssg10
(dp173
g5
L158L
sg6
L85L
sg7
S'weight*(((nJets >= 2 && mht > 150) || (nJets>=3 && mht > 100)) &&  1.6 <= TMath::Max(abs(eta1),abs(eta2)) && ( chargeProduct < 0 && pt1 > 20 && pt2 > 20 && abs(eta1)<2.4  && abs(eta2) < 2.4 && ((abs(eta1) < 1.4 || abs(eta1) > 1.6) && (abs(eta2) < 1.4 || abs(eta2) > 1.6)) && p4.M() > 20 && deltaR > 0.3) && runNr < 99999999)*(p4.M()> 20 && p4.M() < 70)'
p174
sg9
L182L
ssg13
(dp175
g5
L269L
sg6
L235L
sg7
S'weight*(((nJets >= 2 && mht > 150) || (nJets>=3 && mht > 100)) &&  1.6 <= TMath::Max(abs(eta1),abs(eta2)) && ( chargeProduct < 0 && pt1 > 20 && pt2 > 20 && abs(eta1)<2.4  && abs(eta2) < 2.4 && ((abs(eta1) < 1.4 || abs(eta1) > 1.6) && (abs(eta2) < 1.4 || abs(eta2) > 1.6)) && p4.M() > 20 && deltaR > 0.3) && runNr < 99999999)*(p4.M() > 120)'
p176
sg9
L503L
ssg16
(dp177
g5
L865L
sg6
L629L
sg7
S'weight*(((nJets >= 2 && mht > 150) || (nJets>=3 && mht > 100)) &&  1.6 <= TMath::Max(abs(eta1),abs(eta2)) && ( chargeProduct < 0 && pt1 > 20 && pt2 > 20 && abs(eta1)<2.4  && abs(eta2) < 2.4 && ((abs(eta1) < 1.4 || abs(eta1) > 1.6) && (abs(eta2) < 1.4 || abs(eta2) > 1.6)) && p4.M() > 20 && deltaR > 0.3) && runNr < 99999999)*(p4.M() > 20)'
p178
sg9
L1043L
sssS'pt2010'
p179
(dp180
g3
(dp181
g5
L151L
sg6
L103L
sg7
S'weight*(((nJets >= 2 && met > 150) || (nJets>=3 && met > 100)) &&  1.6 <= TMath::Max(abs(eta1),abs(eta2)) && ( chargeProduct < 0 &&  abs(eta1)<2.4  && abs(eta2) < 2.4 && ((abs(eta1) < 1.4 || abs(eta1) > 1.6) && (abs(eta2) < 1.4 || abs(eta2) > 1.6)) && p4.M() > 20 && deltaR > 0.3) && runNr < 99999999)*(((pt1 > 20 && pt2 > 10)||(pt1 > 10 && pt2 > 20)))*(p4.M()> 81 && p4.M() < 101)'
p182
sg9
L179L
ssg10
(dp183
g5
L275L
sg6
L99L
sg7
S'weight*(((nJets >= 2 && met > 150) || (nJets>=3 && met > 100)) &&  1.6 <= TMath::Max(abs(eta1),abs(eta2)) && ( chargeProduct < 0 &&  abs(eta1)<2.4  && abs(eta2) < 2.4 && ((abs(eta1) < 1.4 || abs(eta1) > 1.6) && (abs(eta2) < 1.4 || abs(eta2) > 1.6)) && p4.M() > 20 && deltaR > 0.3) && runNr < 99999999)*(((pt1 > 20 && pt2 > 10)||(pt1 > 10 && pt2 > 20)))*(p4.M()> 20 && p4.M() < 70)'
p184
sg9
L348L
ssg13
(dp185
g5
L223L
sg6
L205L
sg7
S'weight*(((nJets >= 2 && met > 150) || (nJets>=3 && met > 100)) &&  1.6 <= TMath::Max(abs(eta1),abs(eta2)) && ( chargeProduct < 0 &&  abs(eta1)<2.4  && abs(eta2) < 2.4 && ((abs(eta1) < 1.4 || abs(eta1) > 1.6) && (abs(eta2) < 1.4 || abs(eta2) > 1.6)) && p4.M() > 20 && deltaR > 0.3) && runNr < 99999999)*(((pt1 > 20 && pt2 > 10)||(pt1 > 10 && pt2 > 20)))*(p4.M() > 120)'
p186
sg9
L444L
ssg16
(dp187
g5
L795L
sg6
L503L
sg7
S'weight*(((nJets >= 2 && met > 150) || (nJets>=3 && met > 100)) &&  1.6 <= TMath::Max(abs(eta1),abs(eta2)) && ( chargeProduct < 0 &&  abs(eta1)<2.4  && abs(eta2) < 2.4 && ((abs(eta1) < 1.4 || abs(eta1) > 1.6) && (abs(eta2) < 1.4 || abs(eta2) > 1.6)) && p4.M() > 20 && deltaR > 0.3) && runNr < 99999999)*(((pt1 > 20 && pt2 > 10)||(pt1 > 10 && pt2 > 20)))*(p4.M() > 20)'
p188
sg9
L1212L
sssS'pt3030'
p189
(dp190
g3
(dp191
g5
L36L
sg6
L49L
sg7
S'weight*(((nJets >= 2 && met > 150) || (nJets>=3 && met > 100)) &&  1.6 <= TMath::Max(abs(eta1),abs(eta2)) && ( chargeProduct < 0 &&  abs(eta1)<2.4  && abs(eta2) < 2.4 && ((abs(eta1) < 1.4 || abs(eta1) > 1.6) && (abs(eta2) < 1.4 || abs(eta2) > 1.6)) && p4.M() > 20 && deltaR > 0.3) && runNr < 99999999)*(pt1 > 30 && pt2 > 30)*(p4.M()> 81 && p4.M() < 101)'
p192
sg9
L64L
ssg10
(dp193
g5
L29L
sg6
L19L
sg7
S'weight*(((nJets >= 2 && met > 150) || (nJets>=3 && met > 100)) &&  1.6 <= TMath::Max(abs(eta1),abs(eta2)) && ( chargeProduct < 0 &&  abs(eta1)<2.4  && abs(eta2) < 2.4 && ((abs(eta1) < 1.4 || abs(eta1) > 1.6) && (abs(eta2) < 1.4 || abs(eta2) > 1.6)) && p4.M() > 20 && deltaR > 0.3) && runNr < 99999999)*(pt1 > 30 && pt2 > 30)*(p4.M()> 20 && p4.M() < 70)'
p194
sg9
L41L
ssg13
(dp195
g5
L138L
sg6
L146L
sg7
S'weight*(((nJets >= 2 && met > 150) || (nJets>=3 && met > 100)) &&  1.6 <= TMath::Max(abs(eta1),abs(eta2)) && ( chargeProduct < 0 &&  abs(eta1)<2.4  && abs(eta2) < 2.4 && ((abs(eta1) < 1.4 || abs(eta1) > 1.6) && (abs(eta2) < 1.4 || abs(eta2) > 1.6)) && p4.M() > 20 && deltaR > 0.3) && runNr < 99999999)*(pt1 > 30 && pt2 > 30)*(p4.M() > 120)'
p196
sg9
L311L
ssg16
(dp197
g5
L252L
sg6
L254L
sg7
S'weight*(((nJets >= 2 && met > 150) || (nJets>=3 && met > 100)) &&  1.6 <= TMath::Max(abs(eta1),abs(eta2)) && ( chargeProduct < 0 &&  abs(eta1)<2.4  && abs(eta2) < 2.4 && ((abs(eta1) < 1.4 || abs(eta1) > 1.6) && (abs(eta2) < 1.4 || abs(eta2) > 1.6)) && p4.M() > 20 && deltaR > 0.3) && runNr < 99999999)*(pt1 > 30 && pt2 > 30)*(p4.M() > 20)'
p198
sg9
L501L
sssS'midPU'
p199
(dp200
g3
(dp201
g5
L16L
sg6
L27L
sg7
S'weight*(((nJets >= 2 && met > 150) || (nJets>=3 && met > 100)) &&  1.6 <= TMath::Max(abs(eta1),abs(eta2)) && ( chargeProduct < 0 && pt1 > 20 && pt2 > 20 && abs(eta1)<2.4  && abs(eta2) < 2.4 && ((abs(eta1) < 1.4 || abs(eta1) > 1.6) && (abs(eta2) < 1.4 || abs(eta2) > 1.6)) && p4.M() > 20 && deltaR > 0.3) && runNr < 99999999)*(nVertices >= 13 && nVertices < 17)*(p4.M()> 81 && p4.M() < 101)'
p202
sg9
L39L
ssg10
(dp203
g5
L31L
sg6
L13L
sg7
S'weight*(((nJets >= 2 && met > 150) || (nJets>=3 && met > 100)) &&  1.6 <= TMath::Max(abs(eta1),abs(eta2)) && ( chargeProduct < 0 && pt1 > 20 && pt2 > 20 && abs(eta1)<2.4  && abs(eta2) < 2.4 && ((abs(eta1) < 1.4 || abs(eta1) > 1.6) && (abs(eta2) < 1.4 || abs(eta2) > 1.6)) && p4.M() > 20 && deltaR > 0.3) && runNr < 99999999)*(nVertices >= 13 && nVertices < 17)*(p4.M()> 20 && p4.M() < 70)'
p204
sg9
L38L
ssg13
(dp205
g5
L60L
sg6
L53L
sg7
S'weight*(((nJets >= 2 && met > 150) || (nJets>=3 && met > 100)) &&  1.6 <= TMath::Max(abs(eta1),abs(eta2)) && ( chargeProduct < 0 && pt1 > 20 && pt2 > 20 && abs(eta1)<2.4  && abs(eta2) < 2.4 && ((abs(eta1) < 1.4 || abs(eta1) > 1.6) && (abs(eta2) < 1.4 || abs(eta2) > 1.6)) && p4.M() > 20 && deltaR > 0.3) && runNr < 99999999)*(nVertices >= 13 && nVertices < 17)*(p4.M() > 120)'
p206
sg9
L116L
ssg16
(dp207
g5
L143L
sg6
L108L
sg7
S'weight*(((nJets >= 2 && met > 150) || (nJets>=3 && met > 100)) &&  1.6 <= TMath::Max(abs(eta1),abs(eta2)) && ( chargeProduct < 0 && pt1 > 20 && pt2 > 20 && abs(eta1)<2.4  && abs(eta2) < 2.4 && ((abs(eta1) < 1.4 || abs(eta1) > 1.6) && (abs(eta2) < 1.4 || abs(eta2) > 1.6)) && p4.M() > 20 && deltaR > 0.3) && runNr < 99999999)*(nVertices >= 13 && nVertices < 17)*(p4.M() > 20)'
p208
sg9
L241L
sss.