(dp0
S'nEM'
p1
F1053.0
sS'nMM'
p2
F136.0
sS'nEMScaledErr'
p3
F1.4428518969748387
sS'nMMScaledErr'
p4
F0.7431102412592955
sS'nMMScaled'
p5
F7.654373712837696
sS'nEEScaled'
p6
F29.999644491821527
sS'nEEScaledErr'
p7
F1.228778659211525
sS'nEE'
p8
F830.0
sS'nEMScaled'
p9
F40.39950633049011
s.