(dp0
S'EE'
p1
(dp2
S'nLL'
p3
I17
sS'nFF'
p4
F2.1598412065109605
sS'nTL'
p5
I161
sS'nFP'
p6
F76.03146606623098
sS'nPF'
p7
F56.95894182015992
sS'nPP'
p8
I0
sS'nLT'
p9
I213
sS'nTT'
p10
I0
ssS'MM'
p11
(dp12
g3
I152
sg4
F1.2036052429954054
sg5
I373
sg6
F50.296610029050484
sg7
F32.04916750401839
sg8
I0
sg9
I589
sg10
I0
ssS'EM'
p13
(dp14
g3
I82
sg4
F2.459257960798187
sg5
I828
sg6
F145.1938180182873
sg7
F68.48864824367332
sg8
I0
sg9
I405
sg10
I0
ss.