(dp0
S'EE'
p1
(dp2
S'nFakeErr'
p3
F8.00259329189401
sS'nLT'
p4
I66
sS'nPF'
p5
F16.546381408715725
sS'nFake'
p6
F27.251866029918613
sS'nTT'
p7
I405
sS'nTL'
p8
I64
sS'nPFErr'
p9
F5.202960976620997
sS'nPP'
p10
F377.74813397008154
sS'nFPErr'
p11
F3.310765470235936
sS'nFF'
p12
F-0.15239046400680423
sS'nFFErr'
p13
F-0.5111331549629239
sS'nLL'
p14
I6
sS'nFP'
p15
F10.857875085209693
sS'nPPErr'
p16
F18.77045568735111
ssS'MM'
p17
(dp18
g3
F3.5312765887808104
sg4
I144
sg5
F7.478583596803802
sg6
F17.85408756959945
sg7
I473
sg8
I89
sg9
F1.827510649260449
sg10
F455.14591243040036
sg11
F1.5180113007624874
sg12
F0.32455828080788424
sg13
F0.18575463875787396
sg14
I38
sg15
F10.050945691987764
sg16
F20.92763134986013
ssS'EM'
p19
(dp20
g3
F8.445166908217843
sg4
I146
sg5
F11.210942517849077
sg6
F43.41107404128057
sg7
I827
sg8
I168
sg9
F1.919046944960232
sg10
F783.5889259587208
sg11
F6.290902728630866
sg12
F0.2617377491699216
sg13
F0.23521723462674468
sg14
I32
sg15
F31.938393774261574
sg16
F27.248056737897972
ss.