(dp0
S'EE'
p1
(dp2
S'nFakeErr'
p3
F14.81486462713968
sS'nLT'
p4
I150
sS'nPF'
p5
F22.267184449728102
sS'nFake'
p6
F44.93181123578981
sS'nTT'
p7
I1257
sS'nTL'
p8
I97
sS'nPFErr'
p9
F8.138815643818686
sS'nPP'
p10
F1212.0681887642108
sS'nFPErr'
p11
F5.252658827672267
sS'nFF'
p12
F0.4416202753369027
sS'nFFErr'
p13
F1.4233901556487272
sS'nLL'
p14
I11
sS'nFP'
p15
F22.223006510724804
sS'nPPErr'
p16
F34.18687580779119
ssS'MM'
p17
(dp18
g3
F3.763617065545606
sg4
I452
sg5
F16.005574475394265
sg6
F34.64491866349784
sg7
I1450
sg8
I288
sg9
F2.116229576972387
sg10
F1415.355081336499
sg11
F1.5442689562016352
sg12
F0.30871488756168974
sg13
F0.10311853237158408
sg14
I114
sg15
F18.330629300541883
sg16
F37.169045392035635
ssS'EM'
p19
(dp20
g3
F12.413300999341196
sg4
I261
sg5
F33.139392538003584
sg6
F86.72575812839843
sg7
I2326
sg8
I662
sg9
F2.414300971132658
sg10
F2239.2742418715998
sg11
F9.878893744563731
sg12
F0.12451763926505116
sg13
F0.12010628364480672
sg14
I50
sg15
F53.4618479511298
sg16
F46.43040044257419
ss.