(dp0
S'rOutInHighMassErrMM'
p1
F0.0008280358114536426
sS'peakBSF'
p2
F8096.344747543335
sS'peakErrorBSF'
p3
F91.9124356230922
sS'rOutInLowMassSF'
p4
F0.055080821854547386
sS'rOutInHighMassSystMM'
p5
F0.0056428408192050195
sS'correctedHighMassMM'
p6
F1390.1560569481474
sS'rOutInLowMassErrSF'
p7
F0.0008444029845259532
sS'correction'
p8
F1.008573
sS'bFactorBEE'
p9
F0.07259514319724168
sS'highMassMM'
p10
F2148.7516362664674
sS'rOutInHighMassSystSF'
p11
F0.005945262112025717
sS'highMassErrorEE'
p12
F44.41147367547395
sS'peakErrorNoBMM'
p13
F238.671175845477
sS'rOutInHighMassSystEE'
p14
F0.006396914614105742
sS'correctedLowMassMM'
p15
F3589.613445472598
sS'bFactorBErrEE'
p16
F0.0014117840802084056
sS'correctedPeakNoBSF'
p17
F95659.52281070316
sS'lowMassEE'
p18
F2467.659008026123
sS'rOutInHighMassSF'
p19
F0.023781048448102866
sS'highMassOF'
p20
F1368.6884606555163
sS'highMassErrorMM'
p21
F50.687702945429066
sS'lowMassErrorMM'
p22
F65.38420525460079
sS'peakEE'
p23
F42020.810791015625
sS'correctedPeakSF'
p24
F103407.38520910246
sS'bFactorNoBErrSF'
p25
F0.004160894869407631
sS'peakNoBSF'
p26
F95761.23049926758
sS'lowMassMM'
p27
F4030.6349029541016
sS'peakErrorNoBSF'
p28
F309.6188493182642
sS'bFactorNoBEE'
p29
F0.9274047427102288
sS'rOutInLowMassSystMM'
p30
F0.014570750653525715
sS'peakMM'
p31
F61836.77111816406
sS'peakOF'
p32
F446.3699703216553
sS'correctedPeakEE'
p33
F41818.35835186633
sS'bFactorBErrMM'
p34
F0.0011901273939925086
sS'lowMassErrorEE'
p35
F51.296739919989705
sS'correctedPeakBSF'
p36
F7747.855708617804
sS'lowMassSF'
p37
F6498.293910980225
sS'peakNoBMM'
p38
F56932.94891357422
sS'bFactorBErrSF'
p39
F0.0009191282385757818
sS'peakBEE'
p40
F3192.5244464874268
sS'rOutInHighMassMM'
p41
F0.022571363276820078
sS'peakErrorMM'
p42
F248.94558827084123
sS'correctedPeakNoBEE'
p43
F38782.54386787674
sS'correctionErr'
p44
F0.014553
sS'rOutInLowMassErrEE'
p45
F0.0012513208547725975
sS'highMassErrorSF'
p46
F72.33332369464219
sS'bFactorNoBSF'
p47
F0.9250743804929197
sS'correctedPeakBEE'
p48
F3035.809712827304
sS'bFactorBSF'
p49
F0.07492555481362077
sS'peakBMM'
p50
F4903.820301055908
sS'correctedPeakNoBMM'
p51
F56877.05659205973
sS'lowMassErrorSF'
p52
F85.48611334369207
sS'peakErrorBMM'
p53
F70.78116871646637
sS'peakErrorEE'
p54
F205.21364453897021
sS'peakBOF'
p55
F345.526837348938
sS'rOutInLowMassSystSF'
p56
F0.013770205463636847
sS'highMassSF'
p57
F3839.558264378017
sS'peakErrorSF'
p58
F322.9732718198988
sS'rOutInLowMassSystEE'
p59
F0.012594725715453501
sS'rOutInLowMassErrMM'
p60
F0.0010874396961830636
sS'peakNoBEE'
p61
F38828.28158569336
sS'peakSF'
p62
F103857.58190917969
sS'rOutInHighMassEE'
p63
F0.025587658456422968
sS'bFactorNoBMM'
p64
F0.9234881940333981
sS'peakErrorBEE'
p65
F57.12799388715676
sS'correctedLowMassEE'
p66
F2106.7630132492022
sS'rOutInHighMassErrSF'
p67
F0.0007034310104475775
sS'correctedHighMassSF'
p68
F2459.1360375493014
sS'correctedLowMassSF'
p69
F5695.763763147131
sS'peakNoBOF'
p70
F100.8431601524353
sS'rOutInLowMassEE'
p71
F0.050378902861814005
sS'bFactorBMM'
p72
F0.07651177481515031
sS'correctedPeakBMM'
p73
F4712.312051455259
sS'bFactorNoBErrEE'
p74
F0.0065518516171631895
sS'lowMassOF'
p75
F795.7085385322571
sS'peakErrorNoBEE'
p76
F197.10156637163612
sS'correctedHighMassEE'
p77
F1070.0338707158585
sS'rOutInHighMassErrEE'
p78
F0.0010694062884986288
sS'rOutInLowMassMM'
p79
F0.05828300261410286
sS'bFactorNoBErrMM'
p80
F0.005380583136464176
sS'highMassEE'
p81
F1690.8066281115498
sS'correctedPeakMM'
p82
F61589.37056211328
s.