(dp0
S'rOutInHighMassErrMM'
p1
F0.005031218493985128
sS'peakBSF'
p2
F724.7715445756912
sS'peakErrorBSF'
p3
F27.59463458183777
sS'rOutInLowMassSF'
p4
F0.0711128723379815
sS'rOutInHighMassSystMM'
p5
F0.00531067614862444
sS'correctedHighMassMM'
p6
F45.12576053843231
sS'rOutInLowMassErrSF'
p7
F0.0055770513823040465
sS'correction'
p8
F1.031883
sS'bFactorBEE'
p9
F0.17979624628930194
sS'highMassMM'
p10
F88.76369091437664
sS'rOutInHighMassSystSF'
p11
F0.005370640925521104
sS'highMassErrorEE'
p12
F9.583896422368603
sS'peakErrorNoBMM'
p13
F41.86674389371139
sS'rOutInHighMassSystEE'
p14
F0.0054412949340316786
sS'correctedLowMassMM'
p15
F162.9906364835176
sS'bFactorBErrEE'
p16
F0.011386219594871396
sS'correctedPeakNoBSF'
p17
F3180.5636178928985
sS'lowMassEE'
p18
F150.49774330854416
sS'rOutInHighMassSF'
p19
F0.021482563702084415
sS'highMassOF'
p20
F77.75894363981206
sS'highMassErrorMM'
p21
F10.642127152259114
sS'lowMassErrorMM'
p22
F15.306150967646468
sS'peakEE'
p23
F1763.8062915802002
sS'correctedPeakSF'
p24
F3869.782772236754
sS'bFactorNoBErrSF'
p25
F0.01978019272068617
sS'peakNoBSF'
p26
F3185.169596672058
sS'lowMassMM'
p27
F208.65165054798126
sS'peakErrorNoBSF'
p28
F56.479405627414316
sS'bFactorNoBEE'
p29
F0.8202037584546505
sS'rOutInLowMassSystMM'
p30
F0.019181737333489036
sS'peakMM'
p31
F2146.134829521179
sS'peakOF'
p32
F38.9175409078598
sS'correctedPeakEE'
p33
F1745.4800604842299
sS'bFactorBErrMM'
p34
F0.010237648978512223
sS'lowMassErrorEE'
p35
F12.982332257451553
sS'correctedPeakBSF'
p36
F689.2191709536869
sS'lowMassSF'
p37
F359.1493938565254
sS'peakNoBMM'
p38
F1751.4183559417725
sS'bFactorBErrSF'
p39
F0.0076953309074342694
sS'peakBEE'
p40
F330.0550607442856
sS'rOutInHighMassMM'
p41
F0.02124270459449776
sS'peakErrorMM'
p42
F46.45850201604976
sS'correctedPeakNoBEE'
p43
F1431.649305916816
sS'correctionErr'
p44
F0.013232
sS'rOutInLowMassErrEE'
p45
F0.007597516547824784
sS'highMassErrorSF'
p46
F15.690183167543923
sS'bFactorNoBSF'
p47
F0.8218971981351079
sS'correctedPeakBEE'
p48
F313.83076284788825
sS'bFactorBSF'
p49
F0.17810280615707913
sS'peakBMM'
p50
F394.71648383140564
sS'correctedPeakNoBMM'
p51
F1748.9133701430235
sS'lowMassErrorSF'
p52
F21.113962719517044
sS'peakErrorBMM'
p53
F20.138723312194866
sS'peakErrorEE'
p54
F42.1003161633374
sS'peakBOF'
p55
F34.45388054847717
sS'rOutInLowMassSystSF'
p56
F0.017778218084495374
sS'highMassSF'
p57
F163.3709869576851
sS'peakErrorSF'
p58
F62.86005960810771
sS'rOutInLowMassSystEE'
p59
F0.01606772350641695
sS'rOutInLowMassErrMM'
p60
F0.007398102763179625
sS'peakNoBEE'
p61
F1433.7512407302856
sS'peakSF'
p62
F3909.9411211013794
sS'rOutInHighMassEE'
p63
F0.021765179736126714
sS'bFactorNoBMM'
p64
F0.8232913892204604
sS'peakErrorBEE'
p65
F18.376493998970638
sS'correctedLowMassEE'
p66
F112.18356399129814
sS'rOutInHighMassErrSF'
p67
F0.004069527568923016
sS'correctedHighMassSF'
p68
F83.13285491780489
sS'correctedLowMassSF'
p69
F275.1913682577924
sS'peakNoBOF'
p70
F4.463663786649704
sS'rOutInLowMassEE'
p71
F0.0642708940256678
sS'bFactorBMM'
p72
F0.1767086147001984
sS'correctedPeakBMM'
p73
F375.381138337003
sS'bFactorNoBErrEE'
p74
F0.02936466497303401
sS'lowMassOF'
p75
F81.36390036344528
sS'peakErrorNoBEE'
p76
F37.87797645087662
sS'correctedHighMassEE'
p77
F37.99068724226459
sS'rOutInHighMassErrEE'
p78
F0.0055157328516307275
sS'rOutInLowMassMM'
p79
F0.07672694933395614
sS'bFactorNoBErrMM'
p80
F0.02669499763868811
sS'highMassEE'
p81
F74.60729604330845
sS'correctedPeakMM'
p82
F2124.2945001513926
s.