(dp0
S'correctedPeakSF'
p1
F170205.03038406372
sS'rOutInHighMassSystMM'
p2
F0.0018691960276565635
sS'rOutInLowMassErrSF'
p3
F0.0007778488977112104
sS'correction'
p4
F1.0
sS'highMassMM'
p5
F3039.8414959379534
sS'highMassErrorEE'
p6
F70.50862330616712
sS'correctedLowMassSF'
p7
F10937.119556427002
sS'rOutInHighMassSystEE'
p8
F0.0009203531278512763
sS'correctedLowMassMM'
p9
F4965.5530433654785
sS'rOutInHighMassErrMM'
p10
F0.0007892154193319993
sS'lowMassErrorSF'
p11
F129.67299200396832
sS'lowMassEE'
p12
F5971.566513061523
sS'highMassOF'
p13
F2344.118232106457
sS'highMassErrorMM'
p14
F73.40102395209334
sS'correctedHighMassMM'
p15
F695.7232638314963
sS'peakEE'
p16
F77153.89321899414
sS'lowMassOF'
p17
F2936.63334274292
sS'lowMassMM'
p18
F7902.186386108398
sS'rOutInLowMassSF'
p19
F0.06425849771741554
sS'rOutInLowMassSystMM'
p20
F0.013340925201582317
sS'peakMM'
p21
F94288.814453125
sS'peakOF'
p22
F1237.67728805542
sS'correctedPeakEE'
p23
F75916.21593093872
sS'lowMassErrorEE'
p24
F94.4081483196913
sS'lowMassSF'
p25
F13873.752899169922
sS'rOutInHighMassMM'
p26
F0.007476784110626254
sS'peakErrorMM'
p27
F309.0768060286008
sS'correctionErr'
p28
F0.04
sS'rOutInHighMassErrSF'
p29
F0.0005280222025298164
sS'highMassErrorSF'
p30
F89.50590738308242
sS'rOutInLowMassErrEE'
p31
F0.0012522934132057917
sS'correctedHighMassSF'
p32
F3319.3204030846427
sS'peakErrorEE'
p33
F279.9884833179937
sS'correctedPeakMM'
p34
F93051.13716506958
sS'highMassSF'
p35
F5663.4386351911
sS'rOutInLowMassSystEE'
p36
F0.009994350788899615
sS'rOutInLowMassErrMM'
p37
F0.0011330363882164018
sS'rOutInLowMassSystSF'
p38
F0.016064624429353885
sS'peakSF'
p39
F171442.70767211914
sS'rOutInHighMassEE'
p40
F0.003681412511405105
sS'correctedLowMassEE'
p41
F3034.9331703186035
sS'rOutInHighMassSystSF'
p42
F0.004875473415202055
sS'rOutInLowMassEE'
p43
F0.03997740315559846
sS'lowMassErrorMM'
p44
F104.13221567891325
sS'rOutInHighMassSF'
p45
F0.01950189366080822
sS'correctedHighMassEE'
p46
F279.4789071466894
sS'rOutInHighMassErrEE'
p47
F0.000928868177078078
sS'rOutInLowMassMM'
p48
F0.05336370080632927
sS'highMassEE'
p49
F2623.5971392531465
sS'peakErrorSF'
p50
F415.55067710669834
s.