(dp0
S'correctedPeakSF'
p1
F275411.26697540283
sS'rOutInHighMassSystMM'
p2
F0.002394301375098016
sS'rOutInLowMassErrSF'
p3
F0.0005771560402856907
sS'correction'
p4
F1.0
sS'highMassMM'
p5
F5225.877801115688
sS'highMassErrorEE'
p6
F89.92372710312934
sS'correctedLowMassSF'
p7
F16738.6554145813
sS'rOutInHighMassSystEE'
p8
F0.0012840990930689214
sS'correctedLowMassMM'
p9
F8256.611721038818
sS'rOutInHighMassErrMM'
p10
F0.0006094815947058862
sS'lowMassErrorSF'
p11
F155.6821990853821
sS'lowMassEE'
p12
F8482.04369354248
sS'highMassOF'
p13
F3736.5558857475617
sS'highMassErrorMM'
p14
F94.70170102105054
sS'correctedHighMassMM'
p15
F1489.3219153681266
sS'peakEE'
p16
F119904.3275756836
sS'lowMassOF'
p17
F3746.1489295959473
sS'lowMassMM'
p18
F12002.760650634766
sS'rOutInLowMassSF'
p19
F0.06077694496091999
sS'rOutInLowMassSystMM'
p20
F0.013273703014332693
sS'peakMM'
p21
F157198.73211669922
sS'peakOF'
p22
F1691.7927169799805
sS'correctedPeakEE'
p23
F118212.53485870361
sS'lowMassErrorEE'
p24
F110.60825675068648
sS'lowMassSF'
p25
F20484.804344177246
sS'rOutInHighMassMM'
p26
F0.009577205500392065
sS'peakErrorMM'
p27
F398.6141388636715
sS'correctionErr'
p28
F0.04
sS'rOutInHighMassErrSF'
p29
F0.00042089418421993
sS'highMassErrorSF'
p30
F115.37831034138854
sS'rOutInLowMassErrEE'
p31
F0.0009431065027687543
sS'correctedHighMassSF'
p32
F5833.064236321447
sS'peakErrorEE'
p33
F348.71023380596495
sS'correctedPeakMM'
p34
F155506.93939971924
sS'highMassSF'
p35
F9569.620122069009
sS'rOutInLowMassSystEE'
p36
F0.010015635756409473
sS'rOutInLowMassErrMM'
p37
F0.000818550921280661
sS'rOutInLowMassSystSF'
p38
F0.015194236240229997
sS'peakSF'
p39
F277103.0596923828
sS'rOutInHighMassEE'
p40
F0.005136396372275686
sS'correctedLowMassEE'
p41
F4735.894763946533
sS'rOutInHighMassSystSF'
p42
F0.005294867109451265
sS'rOutInLowMassEE'
p43
F0.040062543025637894
sS'lowMassErrorMM'
p44
F125.51853814683338
sS'rOutInHighMassSF'
p45
F0.02117946843780506
sS'correctedHighMassEE'
p46
F607.1864352057582
sS'rOutInHighMassErrEE'
p47
F0.0007608462442429924
sS'rOutInLowMassMM'
p48
F0.05309481205733077
sS'highMassEE'
p49
F4343.74232095332
sS'peakErrorSF'
p50
F528.0128400689797
s.