(dp0
S'rOutInHighMassErrMM'
p1
F0.0007074404084646947
sS'peakBSF'
p2
F18621.0
sS'peakErrorBSF'
p3
F140.0503248014761
sS'rOutInLowMassSF'
p4
F0.07226226922099795
sS'rOutInHighMassSystMM'
p5
F0.00507436158636138
sS'correctedHighMassMM'
p6
F1765.6379
sS'rOutInLowMassErrSF'
p7
F0.0008395587822439875
sS'correction'
p8
F1.007548
sS'bFactorBEE'
p9
F0.10829342854282491
sS'highMassMM'
p10
F3048.0
sS'rOutInHighMassSystSF'
p11
F0.00555775828421641
sS'highMassErrorEE'
p12
F57.996477818808785
sS'peakErrorNoBMM'
p13
F278.43261013233393
sS'rOutInHighMassSystEE'
p14
F0.006184862520409621
sS'correctedLowMassMM'
p15
F6521.88595
sS'bFactorBErrEE'
p16
F0.001322667307219219
sS'correctedPeakNoBSF'
p17
F143009.196028
sS'lowMassEE'
p18
F6389.0
sS'rOutInHighMassSF'
p19
F0.02223103313686564
sS'highMassOF'
p20
F2342.0
sS'highMassErrorMM'
p21
F61.2436132069053
sS'lowMassErrorMM'
p22
F94.45378645148088
sS'peakEE'
p23
F74217.0
sS'correctedPeakSF'
p24
F160645.821632
sS'bFactorNoBErrSF'
p25
F0.0032509831078222037
sS'peakNoBSF'
p26
F143250.0
sS'lowMassMM'
p27
F8072.0
sS'peakErrorNoBSF'
p28
F378.80461571826226
sS'bFactorNoBEE'
p29
F0.8917065714571749
sS'rOutInLowMassSystMM'
p30
F0.018743598296859166
sS'peakMM'
p31
F87654.0
sS'peakOF'
p32
F1216.0
sS'correctedPeakEE'
p33
F73666.355072
sS'bFactorBErrMM'
p34
F0.0012371218551256212
sS'lowMassErrorEE'
p35
F83.48614832388819
sS'correctedPeakBSF'
p36
F17636.625604
sS'lowMassSF'
p37
F14461.0
sS'peakNoBMM'
p38
F77453.0
sS'bFactorBErrSF'
p39
F0.0009144424413124132
sS'peakBEE'
p40
F8420.0
sS'rOutInHighMassMM'
p41
F0.02029744634544552
sS'peakErrorMM'
p42
F296.6797828315051
sS'correctedPeakNoBEE'
p43
F65688.772913
sS'correctionErr'
p44
F0.036051
sS'rOutInLowMassErrEE'
p45
F0.0011620335421860901
sS'highMassErrorSF'
p46
F91.1678573963606
sS'bFactorNoBSF'
p47
F0.8902142276417175
sS'correctedPeakBEE'
p48
F7977.582159
sS'bFactorBSF'
p49
F0.10978577235828246
sS'peakBMM'
p50
F10201.0
sS'correctedPeakNoBMM'
p51
F77322.13555
sS'lowMassErrorSF'
p52
F131.6762438593729
sS'peakErrorBMM'
p53
F102.44108138752118
sS'peakErrorEE'
p54
F272.88556204064207
sS'peakBOF'
p55
F977.0
sS'rOutInLowMassSystSF'
p56
F0.018065567305249487
sS'highMassSF'
p57
F5931.0
sS'peakErrorSF'
p58
F403.86511407456237
sS'rOutInLowMassSystEE'
p59
F0.017331622326123276
sS'rOutInLowMassErrMM'
p60
F0.0011155257008675082
sS'peakNoBEE'
p61
F65797.0
sS'peakSF'
p62
F161871.0
sS'rOutInHighMassEE'
p63
F0.024739450081638484
sS'bFactorNoBMM'
p64
F0.8888809521144685
sS'peakErrorBEE'
p65
F92.84657150144925
sS'correctedLowMassEE'
p66
F5107.029777
sS'rOutInHighMassErrSF'
p67
F0.0005702538006013627
sS'correctedHighMassSF'
p68
F3571.3225839999996
sS'correctedLowMassSF'
p69
F11608.631612
sS'peakNoBOF'
p70
F239.0
sS'rOutInLowMassEE'
p71
F0.0693264893044931
sS'bFactorBMM'
p72
F0.11111904788553155
sS'correctedPeakBMM'
p73
F9666.04365
sS'bFactorNoBErrEE'
p74
F0.004800489524765889
sS'lowMassOF'
p75
F2831.0
sS'peakErrorNoBEE'
p76
F256.60484042718946
sS'correctedHighMassEE'
p77
F1822.465114
sS'rOutInHighMassErrEE'
p78
F0.0007926017325751453
sS'rOutInLowMassMM'
p79
F0.07497439318743666
sS'bFactorNoBErrMM'
p80
F0.004408600303961787
sS'highMassEE'
p81
F2883.0
sS'correctedPeakMM'
p82
F86988.1792
s.