(dp0
S'correctedPeakSF'
p1
F259488.0
sS'rOutInHighMassSystMM'
p2
F0.0025883154062091777
sS'rOutInLowMassErrSF'
p3
F0.000621692897182993
sS'correction'
p4
F1.0
sS'highMassMM'
p5
F5406.0
sS'highMassErrorEE'
p6
F93.71907810045936
sS'correctedLowMassSF'
p7
F17605.0
sS'rOutInHighMassSystEE'
p8
F0.002074497510602987
sS'correctedLowMassMM'
p9
F8587.0
sS'rOutInHighMassErrMM'
p10
F0.0006716740935722902
sS'lowMassErrorSF'
p11
F157.5270237133934
sS'lowMassEE'
p12
F9018.0
sS'highMassOF'
p13
F3916.0
sS'highMassErrorMM'
p14
F96.58294673491797
sS'correctedHighMassMM'
p15
F1490.0
sS'peakEE'
p16
F115572.0
sS'lowMassOF'
p17
F3602.0
sS'lowMassMM'
p18
F12189.0
sS'rOutInLowMassSF'
p19
F0.06784514120113454
sS'rOutInLowMassSystMM'
p20
F0.014916687512159871
sS'peakMM'
p21
F145605.0
sS'peakOF'
p22
F1689.0
sS'correctedPeakEE'
p23
F113883.0
sS'lowMassErrorEE'
p24
F112.36442141532167
sS'lowMassSF'
p25
F21207.0
sS'rOutInHighMassMM'
p26
F0.010353261624836711
sS'peakErrorMM'
p27
F383.79252520079126
sS'correctionErr'
p28
F0.04
sS'rOutInHighMassErrSF'
p29
F0.00046159300370985897
sS'highMassErrorSF'
p30
F119.11870382102049
sS'rOutInLowMassErrEE'
p31
F0.0009969745900813354
sS'correctedHighMassSF'
p32
F6351.0
sS'peakErrorEE'
p33
F342.43788108210225
sS'correctedPeakMM'
p34
F143916.0
sS'highMassSF'
p35
F10267.0
sS'rOutInLowMassSystEE'
p36
F0.011889395256535215
sS'rOutInLowMassErrMM'
p37
F0.000887700358752552
sS'rOutInLowMassSystSF'
p38
F0.016961285300283634
sS'peakSF'
p39
F261177.0
sS'rOutInHighMassEE'
p40
F0.008297990042411949
sS'correctedLowMassEE'
p41
F5416.0
sS'rOutInHighMassSystSF'
p42
F0.0061187800591934885
sS'rOutInLowMassEE'
p43
F0.04755758102614086
sS'lowMassErrorMM'
p44
F125.6851749411998
sS'rOutInHighMassSF'
p45
F0.024475120236773954
sS'correctedHighMassEE'
p46
F945.0
sS'rOutInHighMassErrEE'
p47
F0.0008233199493924378
sS'rOutInLowMassMM'
p48
F0.059666750048639486
sS'highMassEE'
p49
F4861.0
sS'peakErrorSF'
p50
F512.707228737805
s.