(dp0
S'rOutInHighMassErrMM'
p1
F0.005439110349240611
sS'peakBSF'
p2
F660.0
sS'peakErrorBSF'
p3
F26.304694529029998
sS'rOutInLowMassSF'
p4
F0.07178554680082114
sS'rOutInHighMassSystMM'
p5
F0.0057808284354614456
sS'correctedHighMassMM'
p6
F46.870875999999996
sS'rOutInLowMassErrSF'
p7
F0.005988823401884529
sS'correction'
p8
F1.031577
sS'bFactorBEE'
p9
F0.1654475576523397
sS'highMassMM'
p10
F94.0
sS'rOutInHighMassSystSF'
p11
F0.005317193714379067
sS'highMassErrorEE'
p12
F9.520245193137619
sS'peakErrorNoBMM'
p13
F41.103084364601045
sS'rOutInHighMassSystEE'
p14
F0.0047602943061935635
sS'correctedLowMassMM'
p15
F147.332839
sS'bFactorBErrEE'
p16
F0.010982096705060052
sS'correctedPeakNoBSF'
p17
F3101.652653
sS'lowMassEE'
p18
F168.0
sS'rOutInHighMassSF'
p19
F0.021268774857516267
sS'highMassOF'
p20
F84.0
sS'highMassErrorMM'
p21
F10.974920665751437
sS'lowMassErrorMM'
p22
F15.3558338710691
sS'peakEE'
p23
F1723.0
sS'correctedPeakSF'
p24
F3730.705343
sS'bFactorNoBErrSF'
p25
F0.02034815826749596
sS'peakNoBSF'
p26
F3113.0
sS'lowMassMM'
p27
F204.0
sS'peakErrorNoBSF'
p28
F55.89910747555855
sS'bFactorNoBEE'
p29
F0.8345524423476604
sS'rOutInLowMassSystMM'
p30
F0.01817132381243447
sS'peakMM'
p31
F2050.0
sS'peakOF'
p32
F41.0
sS'correctedPeakEE'
p33
F1703.691091
sS'bFactorBErrMM'
p34
F0.01027712731064616
sS'lowMassErrorEE'
p35
F13.79878441949708
sS'correctedPeakBSF'
p36
F629.05269
sS'lowMassSF'
p37
F372.0
sS'peakNoBMM'
p38
F1686.0
sS'bFactorBErrSF'
p39
F0.007583603656499912
sS'peakBEE'
p40
F296.0
sS'rOutInHighMassMM'
p41
F0.023123313741845782
sS'peakErrorMM'
p42
F45.41926435057741
sS'correctedPeakNoBEE'
p43
F1421.819561
sS'correctionErr'
p44
F0.019725
sS'rOutInLowMassErrEE'
p45
F0.008281389628564097
sS'highMassErrorSF'
p46
F15.981973343227235
sS'bFactorNoBSF'
p47
F0.8313850513066371
sS'correctedPeakBEE'
p48
F281.87153
sS'bFactorBSF'
p49
F0.16861494869336294
sS'peakBMM'
p50
F364.0
sS'correctedPeakNoBMM'
p51
F1679.828329
sS'lowMassErrorSF'
p52
F21.897969754312573
sS'peakErrorBMM'
p53
F19.324751741332168
sS'peakErrorEE'
p54
F41.618453698025746
sS'peakBOF'
p55
F30.0
sS'rOutInLowMassSystSF'
p56
F0.017946386700205284
sS'highMassSF'
p57
F166.0
sS'peakErrorSF'
p58
F61.779018856158814
sS'rOutInLowMassSystEE'
p59
F0.01767253342407717
sS'rOutInLowMassErrMM'
p60
F0.007748753389961233
sS'peakNoBEE'
p61
F1427.0
sS'peakSF'
p62
F3773.0
sS'rOutInHighMassEE'
p63
F0.019041177224774254
sS'bFactorNoBMM'
p64
F0.82872779002269
sS'peakErrorBEE'
p65
F17.396993464978983
sS'correctedLowMassEE'
p66
F120.434151
sS'rOutInHighMassErrSF'
p67
F0.004298355117525918
sS'correctedHighMassSF'
p68
F79.347532
sS'correctedLowMassSF'
p69
F267.810723
sS'peakNoBOF'
p70
F11.0
sS'rOutInLowMassEE'
p71
F0.07069013369630868
sS'bFactorBMM'
p72
F0.17127220997730985
sS'correctedPeakBMM'
p73
F347.16817
sS'bFactorNoBErrEE'
p74
F0.030134633021947296
sS'lowMassOF'
p75
F101.0
sS'peakErrorNoBEE'
p76
F37.80793972956198
sS'correctedHighMassEE'
p77
F32.440284
sS'rOutInHighMassErrEE'
p78
F0.005607337291772864
sS'rOutInLowMassMM'
p79
F0.07268529524973788
sS'bFactorNoBErrMM'
p80
F0.02749572105482826
sS'highMassEE'
p81
F72.0
sS'correctedPeakMM'
p82
F2026.996499
s.