(dp0
S'correctedPeakSF'
p1
F96080.0
sS'rOutInHighMassSystMM'
p2
F0.0034612430105221787
sS'rOutInLowMassErrSF'
p3
F0.0009056476608852778
sS'correction'
p4
F1.0
sS'highMassMM'
p5
F2312.0
sS'highMassErrorEE'
p6
F59.020836998470294
sS'correctedLowMassSF'
p7
F5783.0
sS'rOutInHighMassSystEE'
p8
F0.0025665279354269138
sS'correctedLowMassMM'
p9
F3267.0
sS'rOutInHighMassErrMM'
p10
F0.0011102403944403504
sS'lowMassErrorSF'
p11
F84.97145873762554
sS'lowMassEE'
p12
F2516.0
sS'highMassOF'
p13
F1537.0
sS'highMassErrorMM'
p14
F62.06012568469387
sS'correctedHighMassMM'
p15
F775.0
sS'peakEE'
p16
F40103.0
sS'lowMassOF'
p17
F718.0
sS'lowMassMM'
p18
F3985.0
sS'rOutInLowMassSF'
p19
F0.0601894254787677
sS'rOutInLowMassSystMM'
p20
F0.014590814084356075
sS'peakMM'
p21
F56435.0
sS'peakOF'
p22
F458.0
sS'correctedPeakEE'
p23
F39645.0
sS'lowMassErrorEE'
p24
F56.87836847167823
sS'lowMassSF'
p25
F6501.0
sS'rOutInHighMassMM'
p26
F0.013844972042088715
sS'peakErrorMM'
p27
F238.52407174119764
sS'correctionErr'
p28
F0.04
sS'rOutInHighMassErrSF'
p29
F0.0007976312392769924
sS'highMassErrorSF'
p30
F76.12791340894613
sS'rOutInLowMassErrEE'
p31
F0.0014530735740342362
sS'correctedHighMassSF'
p32
F2719.0
sS'peakErrorEE'
p33
F201.39943594757162
sS'correctedPeakMM'
p34
F55977.0
sS'highMassSF'
p35
F4256.0
sS'rOutInLowMassSystEE'
p36
F0.011338125867070248
sS'rOutInLowMassErrMM'
p37
F0.0012502512488459703
sS'rOutInLowMassSystSF'
p38
F0.015047356369691924
sS'peakSF'
p39
F96538.0
sS'rOutInHighMassEE'
p40
F0.010266111741707655
sS'correctedLowMassEE'
p41
F1798.0
sS'rOutInHighMassSystSF'
p42
F0.007074833472106578
sS'rOutInLowMassEE'
p43
F0.04535250346828099
sS'lowMassErrorMM'
p44
F68.5867975633795
sS'rOutInHighMassSF'
p45
F0.02829933388842631
sS'correctedHighMassEE'
p46
F407.0
sS'rOutInHighMassErrEE'
p47
F0.0014896466459825336
sS'rOutInLowMassMM'
p48
F0.0583632563374243
sS'highMassEE'
p49
F1944.0
sS'peakErrorSF'
p50
F311.4429848302896
s.