(dp0
S'SFHighMass'
p1
F537.4192649110846
sS'OFSignal'
p2
F1437.2923383712769
sS'transferEEErr'
p3
F0.014055234261368859
sS'EESignal'
p4
F653.063388466835
sS'rMMOFLowMass'
p5
F0.5676286696967101
sS'rSFOFErrLowMass'
p6
F0.011368559553836512
sS'transferMM'
p7
F1.002671985742088
sS'rEEOFSignal'
p8
F0.45437060438719024
sS'rMMOF'
p9
F0.5531317320695011
sS'transferEE'
p10
F0.9941879503075446
sS'EEHighMass'
p11
F251.64364095366182
sS'OFHighMass'
p12
F535.6639629881829
sS'rSFOFErr'
p13
F0.008352574279588708
sS'SFLowMass'
p14
F736.527331829071
sS'transfer'
p15
F0.9988335467693352
sS'MMLowMass'
p16
F411.7982897758484
sS'rMMOFErrHighMass'
p17
F0.004804451747622551
sS'MMHighMass'
p18
F285.7756239574228
sS'transferErr'
p19
F0.011157841911518905
sS'EELowMass'
p20
F324.72904205322266
sS'rSFOFErrSignal'
p21
F0.007578712779933035
sS'rSFOFErrHighMass'
p22
F0.012239162968927596
sS'EE'
p23
F576.3726830068845
sS'rEEOFErr'
p24
F0.004780997662009422
sS'OFLowMass'
p25
F725.4712662696838
sS'rEEOFHighMass'
p26
F0.46977892548506806
sS'rSFOFHighMass'
p27
F1.0032768714048073
sS'rEEOFErrHighMass'
p28
F0.004225552074655897
sS'rEEOFErrSignal'
p29
F0.004320865885228227
sS'transferMMErr'
p30
F0.013305306322256561
sS'rSFOFSignal'
p31
F1.0089802965582775
sS'rMMOFErrLowMass'
p32
F0.004647201701197953
sS'SFSignal'
p33
F1450.199649810791
sS'MM'
p34
F697.5739137332712
sS'OF'
p35
F1261.1352292578667
sS'MMSignal'
p36
F797.136261343956
sS'rEEOFLowMass'
p37
F0.44761116966486325
sS'rMMOFErr'
p38
F0.005433069186513456
sS'rMMOFHighMass'
p39
F0.5334979459197392
sS'rEEOFErrLowMass'
p40
F0.0036586048908687384
sS'rSFOFLowMass'
p41
F1.0152398393615734
sS'rEEOF'
p42
F0.457026867250437
sS'rMMOFErrSignal'
p43
F0.004948467094118589
sS'rMMOFSignal'
p44
F0.5546096921710872
sS'SF'
p45
F1273.9465967401557
sS'rSFOF'
p46
F1.010158599319938
s.