(dp0
S'OFSignal'
p1
F1887.1040534973145
sS'transferEEErr'
p2
F0.012324299764279944
sS'EESignal'
p3
F850.2433383464813
sS'rEEOFErr'
p4
F0.004041235604019525
sS'transferMM'
p5
F1.0023661212161603
sS'rMMOF'
p6
F0.5610770473709727
sS'rEEOFSignal'
p7
F0.4505545609796929
sS'rSFOFErr'
p8
F0.00714307139522427
sS'transfer'
p9
F1.002909774665602
sS'transferErr'
p10
F0.00968277886659067
sS'rSFOFErrSignal'
p11
F0.006657605240470872
sS'EE'
p12
F777.5862428063338
sS'rEEOFErrSignal'
p13
F0.0037635182198679502
sS'transferMMErr'
p14
F0.01145027388759139
sS'rSFOFSignal'
p15
F1.0129591846563506
sS'SFSignal'
p16
F1911.559383392334
sS'MM'
p17
F971.8062049208129
sS'OF'
p18
F1732.0369982596603
sS'MMSignal'
p19
F1061.3160450458527
sS'rMMOFErr'
p20
F0.004692988226676528
sS'transferEE'
p21
F1.0035892180075872
sS'rEEOF'
p22
F0.44894320594054715
sS'rMMOFErrSignal'
p23
F0.00437556090817306
sS'rMMOFSignal'
p24
F0.5624046236766578
sS'SF'
p25
F1749.3924477271466
sS'rSFOF'
p26
F1.01002025331152
s.