(dp0
S'OFSignal'
p1
F535.0
sS'transferEEErr'
p2
F0.11561938706115037
sS'EESignal'
p3
F249.0
sS'rEEOFErr'
p4
F0.03397128677591566
sS'transferMM'
p5
F0.955822095040945
sS'rMMOF'
p6
F0.5612431444241316
sS'rEEOFSignal'
p7
F0.4654205607476635
sS'rSFOFErr'
p8
F0.060467405515690055
sS'transfer'
p9
F1.0018691588785047
sS'transferErr'
p10
F0.0861324206907013
sS'rSFOFErrSignal'
p11
F0.0612274901668494
sS'EE'
p12
F240.0
sS'rEEOFErrSignal'
p13
F0.03570483511628357
sS'transferMMErr'
p14
F0.0976575273038204
sS'rSFOFSignal'
p15
F1.0018691588785047
sS'SFSignal'
p16
F536.0
sS'MM'
p17
F307.0
sS'OF'
p18
F547.0
sS'MMSignal'
p19
F287.0
sS'rMMOFErr'
p20
F0.04002369068976542
sS'transferEE'
p21
F1.0607710280373832
sS'rEEOF'
p22
F0.43875685557586835
sS'rMMOFErrSignal'
p23
F0.03925058953226852
sS'rMMOFSignal'
p24
F0.5364485981308411
sS'SF'
p25
F547.0
sS'rSFOF'
p26
F1.0
s.