(dp0
S'SFHighMass'
p1
F57.0
sS'rEEOFHighMassSignal'
p2
F0.5857142857142857
sS'OFSignal'
p3
F122.0
sS'transferEEErr'
p4
F0.3030098772591774
sS'EESignal'
p5
F73.0
sS'rMMOFLowMass'
p6
F0.6744186046511628
sS'rSFOFErrLowMass'
p7
F0.2306574573713699
sS'transferMM'
p8
F0.8900833109379199
sS'transferMMLowMassErr'
p9
F0.34023416835097503
sS'EEHighMass'
p10
F25.0
sS'rMMOF'
p11
F0.6630434782608695
sS'transferMMHighMass'
p12
F0.7656250000000001
sS'rSFOFSignal'
p13
F1.1885245901639345
sS'OFLowMassSignal'
p14
F52.0
sS'rEEOFErrHighMassSignal'
p15
F0.11518776660020813
sS'rMMOFErrLowMassSignal'
p16
F0.1530350289078503
sS'OFHighMass'
p17
F49.0
sS'rEEOFErrLowMass'
p18
F0.06510380002772019
sS'rSFOFErrHighMassSignal'
p19
F0.17986065224891531
sS'SFLowMass'
p20
F47.0
sS'rEEOFLowMassSignal'
p21
F0.6153846153846154
sS'rSFOFLowMassSignal'
p22
F1.3269230769230769
sS'EEHighMassSignal'
p23
F41.0
sS'rSFOFErrHighMass'
p24
F0.22661895909981078
sS'rMMOFErrLowMass'
p25
F0.10514515386886109
sS'rMMOFErrHighMass'
p26
F0.09495296468526757
sS'transferEE'
p27
F1.28021349599695
sS'transferLowMassErr'
p28
F0.34626825208074286
sS'transferMMHighMassErr'
p29
F0.23537871018218973
sS'transferHighMassErr'
p30
F0.1816703350422544
sS'MMHighMass'
p31
F32.0
sS'transferErr'
p32
F0.19831464426429854
sS'rMMOFErrHighMassSignal'
p33
F0.10350983390135313
sS'MMHighMassSignal'
p34
F35.0
sS'transferEELowMassErr'
p35
F0.5286018088705298
sS'rSFOFErrSignal'
p36
F0.14601581128140284
sS'rSFOFErrLowMassSignal'
p37
F0.24367569593282737
sS'transferEEHighMass'
p38
F1.1480000000000001
sS'transferEELowMass'
p39
F1.4700854700854702
sS'MMLowMassSignal'
p40
F37.0
sS'EE'
p41
F43.0
sS'rEEOFErr'
p42
F0.08634145659806741
sS'OFLowMass'
p43
F43.0
sS'rEEOFSignal'
p44
F0.5983606557377049
sS'rEEOFHighMass'
p45
F0.5102040816326531
sS'rSFOFHighMass'
p46
F1.163265306122449
sS'rEEOFErrHighMass'
p47
F0.07410509401319916
sS'rMMOFLowMassSignal'
p48
F0.7115384615384616
sS'OFHighMassSignal'
p49
F70.0
sS'rEEOFErrSignal'
p50
F0.08853989237388066
sS'transferMMErr'
p51
F0.19772799187353893
sS'rSFOFHighMassSignal'
p52
F1.0857142857142856
sS'transferLowMass'
p53
F1.2139934533551555
sS'rEEOFErrLowMassSignal'
p54
F0.13826415911891035
sS'transferHighMass'
p55
F0.9333333333333333
sS'MMLowMass'
p56
F29.0
sS'transferEEHighMassErr'
p57
F0.36136319679790313
sS'rSFOFErr'
p58
F0.1617942057173202
sS'SFSignal'
p59
F145.0
sS'rMMOFHighMassSignal'
p60
F0.5
sS'transferMMLowMass'
p61
F1.0550397877984086
sS'EELowMassSignal'
p62
F32.0
sS'MM'
p63
F61.0
sS'OF'
p64
F92.0
sS'MMSignal'
p65
F72.0
sS'rEEOFLowMass'
p66
F0.4186046511627907
sS'rMMOFErr'
p67
F0.1094785134927289
sS'rMMOFHighMass'
p68
F0.6530612244897959
sS'EELowMass'
p69
F18.0
sS'rSFOFLowMass'
p70
F1.0930232558139534
sS'rEEOF'
p71
F0.4673913043478261
sS'SFLowMassSignal'
p72
F69.0
sS'rMMOFErrSignal'
p73
F0.08770560872973339
sS'transfer'
p74
F1.0513871374527113
sS'rMMOFSignal'
p75
F0.5901639344262295
sS'rSFOF'
p76
F1.1304347826086956
sS'SF'
p77
F104.0
sS'SFHighMassSignal'
p78
F76.0
s.