(dp0
S'OFSignal'
p1
F2244.781012535095
sS'transferEEErr'
p2
F0.022607364391908663
sS'EESignal'
p3
F1019.670051574707
sS'rEEOFErr'
p4
F0.0069803675563451665
sS'transferMM'
p5
F1.0032889451565203
sS'rMMOF'
p6
F0.5627979147598032
sS'rEEOFSignal'
p7
F0.4542403227222439
sS'rSFOFErr'
p8
F0.012814111468983624
sS'transfer'
p9
F1.011101070449441
sS'transferErr'
p10
F0.01813985217738349
sS'rSFOFErrSignal'
p11
F0.012894791246603666
sS'EE'
p12
F891.6139667124589
sS'rEEOFErrSignal'
p13
F0.007097466301185654
sS'transferMMErr'
p14
F0.021744550838995312
sS'rSFOFSignal'
p15
F1.018889248957896
sS'SFSignal'
p16
F2287.1832399368286
sS'MM'
p17
F1127.8784383123166
sS'OF'
p18
F2004.0558231166942
sS'MMSignal'
p19
F1267.5131883621216
sS'rMMOFErr'
p20
F0.008539093995725196
sS'transferEE'
p21
F1.0209832930303278
sS'rEEOF'
p22
F0.4449047558594585
sS'rMMOFErrSignal'
p23
F0.00873881586067732
sS'rMMOFSignal'
p24
F0.5646489262356522
sS'SF'
p25
F2019.4924050247755
sS'rSFOF'
p26
F1.0077026706192618
s.