(dp0
S'SFHighMass'
p1
F23.0
sS'rEEOFHighMassSignal'
p2
F0.5185185185185185
sS'OFSignal'
p3
F38.0
sS'transferEEErr'
p4
F0.5526944762850723
sS'EESignal'
p5
F25.0
sS'rMMOFLowMass'
p6
F1.0
sS'rSFOFErrLowMass'
p7
F0.664605868330606
sS'transferMM'
p8
F1.0011961722488039
sS'transferMMLowMassErr'
p9
F0.4297167464471722
sS'EEHighMass'
p10
F10.0
sS'rMMOF'
p11
F0.7096774193548387
sS'transferMMHighMass'
p12
F1.2535612535612535
sS'rSFOFSignal'
p13
F1.368421052631579
sS'OFLowMassSignal'
p14
F11.0
sS'rEEOFErrHighMassSignal'
p15
F0.1707694972942093
sS'rMMOFErrLowMassSignal'
p16
F0.30767785899150885
sS'OFHighMass'
p17
F22.0
sS'rEEOFErrLowMass'
p18
F0.19143741654375268
sS'rSFOFErrHighMassSignal'
p19
F0.32460763445127605
sS'SFLowMass'
p20
F14.0
sS'rEEOFLowMassSignal'
p21
F1.0
sS'rSFOFLowMassSignal'
p22
F1.6363636363636365
sS'EEHighMassSignal'
p23
F14.0
sS'rSFOFErrHighMass'
p24
F0.31177131421386667
sS'rMMOFErrLowMass'
p25
F0.34633524947264444
sS'rMMOFErrHighMass'
p26
F0.1308620368849011
sS'transferEE'
p27
F1.3596491228070176
sS'transferLowMassErr'
p28
F0.5300914998406494
sS'transferMMHighMassErr'
p29
F0.5736527765090222
sS'transferHighMassErr'
p30
F0.41408526210167457
sS'MMHighMass'
p31
F13.0
sS'transferErr'
p32
F0.371215351483061
sS'rMMOFErrHighMassSignal'
p33
F0.21853363040908239
sS'MMHighMassSignal'
p34
F20.0
sS'transferEELowMassErr'
p35
F1.2637606217519635
sS'rSFOFErrSignal'
p36
F0.2920434912599265
sS'rSFOFErrLowMassSignal'
p37
F0.6262478152222358
sS'transferEEHighMass'
p38
F1.1407407407407406
sS'transferEELowMass'
p39
F1.7999999999999998
sS'MMLowMassSignal'
p40
F7.0
sS'EE'
p41
F15.0
sS'rEEOFErr'
p42
F0.15218855888978675
sS'OFLowMass'
p43
F9.0
sS'rEEOFSignal'
p44
F0.6578947368421053
sS'rEEOFHighMass'
p45
F0.45454545454545453
sS'rSFOFHighMass'
p46
F1.0454545454545454
sS'rEEOFErrHighMass'
p47
F0.1004289686083928
sS'rMMOFLowMassSignal'
p48
F0.6363636363636364
sS'OFHighMassSignal'
p49
F27.0
sS'rEEOFErrSignal'
p50
F0.1694200806471616
sS'transferMMErr'
p51
F0.37603605604057155
sS'rSFOFHighMassSignal'
p52
F1.2592592592592593
sS'transferLowMass'
p53
F1.051948051948052
sS'rEEOFErrLowMassSignal'
p54
F0.4264014327112209
sS'transferHighMass'
p55
F1.2045088566827697
sS'MMLowMass'
p56
F9.0
sS'transferEEHighMassErr'
p57
F0.5748248553137207
sS'rSFOFErr'
p58
F0.2906114876533054
sS'SFSignal'
p59
F52.0
sS'rMMOFHighMassSignal'
p60
F0.7407407407407407
sS'transferMMLowMass'
p61
F0.6363636363636364
sS'EELowMassSignal'
p62
F11.0
sS'MM'
p63
F22.0
sS'OF'
p64
F31.0
sS'MMSignal'
p65
F27.0
sS'rEEOFLowMass'
p66
F0.5555555555555556
sS'rMMOFErr'
p67
F0.19783664317758132
sS'rMMOFHighMass'
p68
F0.5909090909090909
sS'EELowMass'
p69
F5.0
sS'rSFOFLowMass'
p70
F1.5555555555555556
sS'rEEOF'
p71
F0.4838709677419355
sS'SFLowMassSignal'
p72
F18.0
sS'rMMOFErrSignal'
p73
F0.1788393840719447
sS'transfer'
p74
F1.1465149359886202
sS'rMMOFSignal'
p75
F0.7105263157894737
sS'rSFOF'
p76
F1.1935483870967742
sS'SF'
p77
F37.0
sS'SFHighMassSignal'
p78
F34.0
s.