(dp0
S'SFHighMass'
p1
F1018.0
sS'OFSignal'
p2
F2047.0
sS'transferEEErr'
p3
F0.06177343141221202
sS'EESignal'
p4
F1038.0
sS'rMMOFLowMass'
p5
F0.5522682445759369
sS'rSFOFErrLowMass'
p6
F0.04345778428156143
sS'transferMM'
p7
F1.066594875112424
sS'rEEOFSignal'
p8
F0.5070835368832438
sS'rMMOF'
p9
F0.5546599496221662
sS'transferEE'
p10
F1.1159210872652316
sS'EEHighMass'
p11
F477.0
sS'OFHighMass'
p12
F971.0
sS'rSFOFErr'
p13
F0.03195783004642661
sS'SFLowMass'
p14
F985.0
sS'transfer'
p15
F1.0888076775896243
sS'MMLowMass'
p16
F560.0
sS'rMMOFErrHighMass'
p17
F0.017920389900620726
sS'MMHighMass'
p18
F541.0
sS'transferErr'
p19
F0.04790990478670103
sS'EELowMass'
p20
F425.0
sS'rSFOFErrSignal'
p21
F0.033562175193601905
sS'rSFOFErrHighMass'
p22
F0.04702864172598108
sS'EE'
p23
F902.0
sS'rEEOFErr'
p24
F0.018246765640843033
sS'OFLowMass'
p25
F1014.0
sS'rEEOFHighMass'
p26
F0.49124613800205974
sS'rSFOFHighMass'
p27
F1.0484037075180226
sS'rEEOFErrHighMass'
p28
F0.015799316485238253
sS'rEEOFErrSignal'
p29
F0.019321885177956216
sS'transferMMErr'
p30
F0.05569144394577706
sS'rSFOFSignal'
p31
F1.0986809965803614
sS'rMMOFErrLowMass'
p32
F0.01738730577948852
sS'SFSignal'
p33
F2249.0
sS'MM'
p34
F1101.0
sS'OF'
p35
F1985.0
sS'MMSignal'
p36
F1211.0
sS'rEEOFLowMass'
p37
F0.41913214990138065
sS'rMMOFErr'
p38
F0.020842550080845658
sS'rMMOFHighMass'
p39
F0.557157569515963
sS'rEEOFErrLowMass'
p40
F0.013193498954243352
sS'rSFOFLowMass'
p41
F0.9714003944773175
sS'rEEOF'
p42
F0.4544080604534005
sS'rMMOFErrSignal'
p43
F0.02144721214179603
sS'rMMOFSignal'
p44
F0.5915974596971177
sS'SF'
p45
F2003.0
sS'rSFOF'
p46
F1.0090680100755667
s.