(dp0
S'OFSignal'
p1
F542.8732756376266
sS'transferEEErr'
p2
F0.044859117875390195
sS'EESignal'
p3
F234.38296115398407
sS'rEEOFErr'
p4
F0.013146237954926856
sS'transferMM'
p5
F0.977048582319636
sS'rMMOF'
p6
F0.5856244912575692
sS'rEEOFSignal'
p7
F0.43174525560996124
sS'rSFOFErr'
p8
F0.024953331037949018
sS'transfer'
p9
F0.9961811476874677
sS'transferErr'
p10
F0.03509582525559125
sS'rSFOFErrSignal'
p11
F0.025160057304134967
sS'EE'
p12
F233.64734418658918
sS'rEEOFErrSignal'
p13
F0.013336363977426584
sS'transferMMErr'
p14
F0.04069388943961113
sS'rSFOFSignal'
p15
F1.0039288345648274
sS'SFSignal'
p16
F545.0061349272728
sS'MM'
p17
F324.12334077907144
sS'OF'
p18
F553.46616409954
sS'MMSignal'
p19
F310.6231737732887
sS'rMMOFErr'
p20
F0.017276517339052083
sS'transferEE'
p21
F1.0227224765704663
sS'rEEOF'
p22
F0.4221528963143049
sS'rMMOFErrSignal'
p23
F0.01682255611111546
sS'rMMOFSignal'
p24
F0.572183578954866
sS'SF'
p25
F557.7706849656606
sS'rSFOF'
p26
F1.007777387571874
s.