(dp0
S'SFHighMass'
p1
F321.269552992635
sS'OFSignal'
p2
F481.24136888980865
sS'transferEEErr'
p3
F0.04485911778929774
sS'EESignal'
p4
F218.46813970804214
sS'rMMOFLowMass'
p5
F0.6949611495358418
sS'rSFOFErrLowMass'
p6
F0.057398136463609986
sS'transferMM'
p7
F0.9770485764901784
sS'rEEOFSignal'
p8
F0.45396791263401437
sS'rMMOF'
p9
F0.6545213732235068
sS'transferEE'
p10
F1.0227224833307618
sS'EEHighMass'
p11
F135.48569791820046
sS'OFHighMass'
p12
F295.87968968829955
sS'rSFOFErr'
p13
F0.027235902796542078
sS'SFLowMass'
p14
F217.6418163329363
sS'transfer'
p15
F0.9955061127546331
sS'MMLowMass'
p16
F135.34504652023315
sS'rMMOFErrHighMass'
p17
F0.011014994175977537
sS'MMHighMass'
p18
F185.78385507443454
sS'transferErr'
p19
F0.03511426892457021
sS'EELowMass'
p20
F82.29676981270313
sS'rSFOFErrSignal'
p21
F0.02743125349537566
sS'rSFOFErrHighMass'
p22
F0.025057028059143956
sS'EE'
p23
F217.7824677309036
sS'rEEOFErr'
p24
F0.0138228969147268
sS'OFLowMass'
p25
F194.75196075439453
sS'rEEOFHighMass'
p26
F0.45790807088154856
sS'rSFOFHighMass'
p27
F1.085811443600887
sS'rEEOFErrHighMass'
p28
F0.008009104205951622
sS'rEEOFErrSignal'
p29
F0.014022808905159334
sS'transferMMErr'
p30
F0.040693889012426585
sS'rSFOFSignal'
p31
F1.0934670886244384
sS'rMMOFErrLowMass'
p32
F0.02535214748447271
sS'SFSignal'
p33
F526.2215985655785
sS'MM'
p34
F321.1289015946677
sS'OF'
p35
F490.6316504426941
sS'MMSignal'
p36
F307.7534588575363
sS'rEEOFLowMass'
p37
F0.4225722272264523
sS'rMMOFErr'
p38
F0.01930904533527606
sS'rMMOFHighMass'
p39
F0.6279033727193384
sS'rEEOFErrLowMass'
p40
F0.015364926831658137
sS'rSFOFLowMass'
p41
F1.1175333767622941
sS'rEEOF'
p42
F0.44388181548092087
sS'rMMOFErrSignal'
p43
F0.0188016767188286
sS'rMMOFSignal'
p44
F0.639499175990424
sS'SF'
p45
F538.9113693255713
sS'rSFOF'
p46
F1.0984031887044277
s.