(dp0
S'SFHighMass'
p1
F358.0
sS'OFSignal'
p2
F531.0
sS'transferEEErr'
p3
F0.11477088301042673
sS'EESignal'
p4
F248.0
sS'rMMOFLowMass'
p5
F0.6153846153846154
sS'rSFOFErrLowMass'
p6
F0.10698598866317949
sS'transferMM'
p7
F0.948506332853292
sS'rEEOFSignal'
p8
F0.4670433145009416
sS'rMMOF'
p9
F0.5698324022346368
sS'transferEE'
p10
F1.0493818405314044
sS'EEHighMass'
p11
F164.0
sS'OFHighMass'
p12
F355.0
sS'rSFOFErr'
p13
F0.06170927626447041
sS'SFLowMass'
p14
F187.0
sS'transfer'
p15
F0.9927434820919505
sS'MMLowMass'
p16
F112.0
sS'rMMOFErrHighMass'
p17
F0.02915361554981043
sS'MMHighMass'
p18
F194.0
sS'transferErr'
p19
F0.08568392991887946
sS'EELowMass'
p20
F75.0
sS'rSFOFErrSignal'
p21
F0.06171826541063357
sS'rSFOFErrHighMass'
p22
F0.07553421996774112
sS'EE'
p23
F239.0
sS'rEEOFErr'
p24
F0.03460735297714725
sS'OFLowMass'
p25
F182.0
sS'rEEOFHighMass'
p26
F0.4619718309859155
sS'rSFOFHighMass'
p27
F1.008450704225352
sS'rEEOFErrHighMass'
p28
F0.024640138436293944
sS'rEEOFErrSignal'
p29
F0.035921361383133024
sS'transferMMErr'
p30
F0.09718247480051101
sS'rSFOFSignal'
p31
F1.0075329566854991
sS'rMMOFErrLowMass'
p32
F0.04599988731357268
sS'SFSignal'
p33
F535.0
sS'MM'
p34
F306.0
sS'OF'
p35
F537.0
sS'MMSignal'
p36
F287.0
sS'rEEOFLowMass'
p37
F0.41208791208791207
sS'rMMOFErr'
p38
F0.04081436762923295
sS'rMMOFHighMass'
p39
F0.5464788732394367
sS'rEEOFErrLowMass'
p40
F0.030779024960068187
sS'rSFOFLowMass'
p41
F1.0274725274725274
sS'rEEOF'
p42
F0.4450651769087523
sS'rMMOFErrSignal'
p43
F0.039598234078959016
sS'rMMOFSignal'
p44
F0.5404896421845574
sS'SF'
p45
F545.0
sS'rSFOF'
p46
F1.0148975791433892
s.