(dp0
S'SFHighMass'
p1
F25.604282418848015
sS'rEEOFHighMassSignal'
p2
F0.466720774946073
sS'OFSignal'
p3
F82.00334529578686
sS'transferEEErr'
p4
F0.021745172402062765
sS'EESignal'
p5
F37.301950216293335
sS'rMMOFLowMass'
p6
F0.5916835752533917
sS'rSFOFErrLowMass'
p7
F0.01995179824246456
sS'transferMM'
p8
F0.9920272491173385
sS'transferMMLowMassErr'
p9
F0.02992981126478423
sS'EEHighMass'
p10
F11.930049627320841
sS'rMMOF'
p11
F0.5701123039781086
sS'transferMMHighMass'
p12
F1.0364216730684852
sS'rSFOFSignal'
p13
F1.0204502149593524
sS'OFLowMassSignal'
p14
F38.234471797943115
sS'rEEOFErrHighMassSignal'
p15
F0.007976440127997081
sS'rMMOFErrLowMassSignal'
p16
F0.011192754086807779
sS'OFHighMass'
p17
F25.15805368835572
sS'rEEOFErrLowMass'
p18
F0.011651291058674337
sS'rSFOFErrHighMassSignal'
p19
F0.013255568052257088
sS'SFLowMass'
p20
F32.47191568464041
sS'rEEOFLowMassSignal'
p21
F0.44133230734917167
sS'rSFOFLowMassSignal'
p22
F1.009460673136751
sS'EEHighMassSignal'
p23
F20.427842557430267
sS'rSFOFErrHighMass'
p24
F0.019701276281967908
sS'rMMOFErrLowMass'
p25
F0.015960557616644628
sS'rMMOFErrHighMass'
p26
F0.01653212171351151
sS'transferEE'
p27
F0.9802118620469018
sS'transferLowMassErr'
p28
F0.02368132276909442
sS'transferMMHighMassErr'
p29
F0.02813894448486919
sS'transferHighMassErr'
p30
F0.01573636810788615
sS'MMHighMass'
p31
F13.674232791527174
sS'transferErr'
p32
F0.01672887135520793
sS'rMMOFErrHighMassSignal'
p33
F0.008433464591873392
sS'MMHighMassSignal'
p34
F24.656293138861656
sS'transferEELowMassErr'
p35
F0.03032534379600913
sS'rSFOFErrSignal'
p36
F0.010274273154943227
sS'rSFOFErrLowMassSignal'
p37
F0.015970572590428136
sS'transferEEHighMass'
p38
F0.9842194022960802
sS'transferEELowMass'
p39
F0.9681764896211429
sS'MMLowMassSignal'
p40
F21.72208797931671
sS'EE'
p41
F26.06049447436817
sS'rEEOFErr'
p42
F0.008321558012794923
sS'OFLowMass'
p43
F30.998783141374588
sS'rEEOFSignal'
p44
F0.45488327435600145
sS'rEEOFHighMass'
p45
F0.47420399745957315
sS'rSFOFHighMass'
p46
F1.0177370132053907
sS'rEEOFErrHighMass'
p47
F0.014701335675717454
sS'rMMOFLowMassSignal'
p48
F0.5681283657875793
sS'OFHighMassSignal'
p49
F43.76887349784374
sS'rEEOFErrSignal'
p50
F0.005941169194131934
sS'transferMMErr'
p51
F0.020641023294582988
sS'rSFOFHighMassSignal'
p52
F1.0300501724933127
sS'transferLowMass'
p53
F0.9636651191205717
sS'rEEOFErrLowMassSignal'
p54
F0.008880981966513159
sS'transferHighMass'
p55
F1.0120985668479732
sS'MMLowMass'
p56
F18.34147083759308
sS'transferEEHighMassErr'
p57
F0.03139034679982782
sS'rSFOFErr'
p58
F0.014106725856234969
sS'SFSignal'
p59
F83.6803313344717
sS'rMMOFHighMassSignal'
p60
F0.5633293975472395
sS'transferMMLowMass'
p61
F0.9601895160673934
sS'EELowMassSignal'
p62
F16.874107658863068
sS'MM'
p63
F32.01570362912025
sS'OF'
p64
F56.15683682973031
sS'MMSignal'
p65
F46.37838111817837
sS'rEEOFLowMass'
p66
F0.4558386947837056
sS'rMMOFErr'
p67
F0.009615548667157576
sS'rMMOFHighMass'
p68
F0.5435330157458176
sS'EELowMass'
p69
F14.130444847047329
sS'rSFOFLowMass'
p70
F1.0475222700370972
sS'rEEOF'
p71
F0.464066281962864
sS'SFLowMassSignal'
p72
F38.59619563817978
sS'rMMOFErrSignal'
p73
F0.00689118591240648
sS'transfer'
p74
F0.9867253381879599
sS'rMMOFSignal'
p75
F0.565566940603351
sS'rSFOF'
p76
F1.0341785859409727
sS'SF'
p77
F58.07619810348842
sS'SFHighMassSignal'
p78
F45.08413569629192
s.