(dp0
S'SFHighMass'
p1
F917.9621610492468
sS'rEEOFHighMassSignal'
p2
F0.44254013622698213
sS'OFSignal'
p3
F2538.9629411697388
sS'transferEEErr'
p4
F0.028358200896490226
sS'EESignal'
p5
F1089.6552205085754
sS'rMMOFLowMass'
p6
F0.587118699563623
sS'rSFOFErrLowMass'
p7
F0.03300033826069371
sS'transferMM'
p8
F0.9919449926365304
sS'transferMMLowMassErr'
p9
F0.051297260345354256
sS'EEHighMass'
p10
F409.4857575967908
sS'rMMOF'
p11
F0.5724450327765909
sS'transferMMHighMass'
p12
F0.9820574349820324
sS'rSFOFSignal'
p13
F0.997007329695081
sS'OFLowMassSignal'
p14
F663.0349731445312
sS'rEEOFErrHighMassSignal'
p15
F0.0048327715483743585
sS'rMMOFErrLowMassSignal'
p16
F0.01231837779705006
sS'OFHighMass'
p17
F899.8138528242707
sS'rEEOFErrLowMass'
p18
F0.009894287927184515
sS'rSFOFErrHighMassSignal'
p19
F0.015159677068195092
sS'SFLowMass'
p20
F452.01377326250076
sS'rEEOFLowMassSignal'
p21
F0.39135462305414676
sS'rSFOFLowMassSignal'
p22
F0.9956371255522677
sS'EEHighMassSignal'
p23
F830.1734185218811
sS'rSFOFErrHighMass'
p24
F0.02245659898795872
sS'rMMOFErrLowMass'
p25
F0.014007038926492622
sS'rMMOFErrHighMass'
p26
F0.008869537412721727
sS'transferEE'
p27
F0.9715218254810303
sS'transferLowMassErr'
p28
F0.043592276847684006
sS'transferMMHighMassErr'
p29
F0.03114640261887442
sS'transferHighMassErr'
p30
F0.020619906290660968
sS'MMHighMass'
p31
F508.476403452456
sS'transferErr'
p32
F0.02236191193151935
sS'rMMOFErrHighMassSignal'
p33
F0.006061989142056649
sS'MMHighMassSignal'
p34
F1041.049008846283
sS'transferEELowMassErr'
p35
F0.05502017647822272
sS'rSFOFErrSignal'
p36
F0.013439507970950575
sS'rSFOFErrLowMassSignal'
p37
F0.028437158931515473
sS'transferEEHighMass'
p38
F0.9724483394606328
sS'transferEELowMass'
p39
F0.9426415597678919
sS'MMLowMassSignal'
p40
F400.66043281555176
sS'EE'
p41
F596.7192683890462
sS'rEEOFErr'
p42
F0.010325112885661729
sS'OFLowMass'
p43
F450.9825060367584
sS'rEEOFSignal'
p44
F0.4291733458726872
sS'rEEOFHighMass'
p45
F0.4550782990409922
sS'rSFOFHighMass'
p46
F1.0201689584662577
sS'rEEOFErrHighMass'
p47
F0.007139552022465811
sS'rMMOFLowMassSignal'
p48
F0.604282502498121
sS'OFHighMassSignal'
p49
F1875.9279680252075
sS'rEEOFErrSignal'
p50
F0.0075041205212908945
sS'transferMMErr'
p51
F0.026483527463775577
sS'rSFOFHighMassSignal'
p52
F0.9974916197544638
sS'transferLowMass'
p53
F0.9933655842916919
sS'rEEOFErrLowMassSignal'
p54
F0.007974252953903872
sS'transferHighMass'
p55
F0.9777709971239593
sS'MMLowMass'
p56
F264.78026247024536
sS'transferEEHighMassErr'
p57
F0.03296347501695264
sS'rSFOFErr'
p58
F0.018583440458066793
sS'SFSignal'
p59
F2531.36466217041
sS'rMMOFHighMassSignal'
p60
F0.5549514835274816
sS'transferMMLowMass'
p61
F1.0292339572002307
sS'EELowMassSignal'
p62
F259.48180198669434
sS'MM'
p63
F773.2566659227014
sS'OF'
p64
F1350.7963588610291
sS'MMSignal'
p65
F1441.7094416618347
sS'rEEOFLowMass'
p66
F0.4151680126966931
sS'rMMOFErr'
p67
F0.01236976850753662
sS'rMMOFHighMass'
p68
F0.5650906594252656
sS'EELowMass'
p69
F187.2335107922554
sS'rSFOFLowMass'
p70
F1.002286712260316
sS'rEEOF'
p71
F0.441753684391177
sS'SFLowMassSignal'
p72
F660.1422348022461
sS'rMMOFErrSignal'
p73
F0.00890396206280791
sS'transfer'
p74
F0.9830492908522945
sS'rMMOFSignal'
p75
F0.5678339838223938
sS'rSFOF'
p76
F1.0141987171677678
sS'SF'
p77
F1369.9759343117476
sS'SFHighMassSignal'
p78
F1871.222427368164
s.