(dp0
S'EarlyData2015'
p1
(dp2
S'MuMu'
p3
(dp4
S'UncertaintyUp'
p5
F0.0018626814876629982
sS'cut'
p6
S'weight*(ht > 400 && !(nJets >= 2 && met > 100) && abs(eta1) < 1.4 && abs(eta2) < 1.4 && ( chargeProduct < 0 && ((pt1 > 25 && pt2 > 20) || (pt1 > 20 && pt2 > 25))  && abs(eta1)<2.4  && abs(eta2) < 2.4 && ((abs(eta1) < 1.4 || abs(eta1) > 1.6) && (abs(eta2) < 1.4 || abs(eta2) > 1.6)) && deltaR > 0.3 && p4.M() > 20) && runNr < 99999999)'
p7
sS'Denominator'
p8
F4159.92626953125
sS'Efficiency'
p9
F0.958393239814079
sS'Nominator'
p10
F3986.84521484375
sS'UncertaintyDown'
p11
F0.0018626814876629982
ssS'RT'
p12
F1.022646907527822
sS'MuMuNoTrack'
p13
(dp14
g5
F0.002397520972961975
sg6
g7
sg8
F4159.92626953125
sg9
F0.9293203884862649
sg10
F3865.904296875
sg11
F0.002397520972961975
ssS'EE'
p15
(dp16
g5
F0.0025311392082506545
sg6
g7
sg8
F3780.754638671875
sg9
F0.9226650366321879
sg10
F3488.3701171875
sg11
F0.0025311392082506545
ssS'EMu'
p17
(dp18
g5
F0.0021860728410875163
sg6
g7
sg8
F2759.210205078125
sg9
F0.9195348497685087
sg10
F2537.18994140625
sg11
F0.0021860728410875163
ssS'RTErrStat'
p19
F0.0029775773169315525
sS'RTErrSyst'
p20
F0.0676129824520243
ss.