(dp0
S'Full2012'
p1
(dp2
S'MuMu'
p3
(dp4
S'UncertaintyUp'
p5
F0.003967584835157689
sS'cut'
p6
S'weight*(ht > 200 && !(nJets >= 2 && met > 100) && ( chargeProduct < 0 && pt1 > 20 && pt2 > 20 && abs(eta1)<2.4  && abs(eta2) < 2.4 && ((abs(eta1) < 1.4 || abs(eta1) > 1.6) && (abs(eta2) < 1.4 || abs(eta2) > 1.6)) && p4.M() > 20 && deltaR > 0.3 && !(runNr == 195649 && lumiSec == 49 && eventNr == 75858433) && !(runNr == 195749 && lumiSec == 108 && eventNr == 216906941)) && runNr < 99999999)'
p7
sS'Denominator'
p8
F1986.0
sS'Efficiency'
p9
F0.9677744209466264
sS'Nominator'
p10
F1922.0
sS'UncertaintyDown'
p11
F0.004468487938646848
ssS'RT'
p12
F1.0356359741238501
sS'MuMuNoTrack'
p13
(dp14
g5
F0.007048379929531889
sg6
g7
sg8
F1986.0
sg9
F0.8907351460221551
sg10
F1769.0
sg11
F0.007455908360220143
ssS'EE'
p15
(dp16
g5
F0.002372353228650148
sg6
g7
sg8
F4672.0
sg9
F0.9730308219178082
sg10
F4546.0
sg11
F0.0025839813315495785
ssS'EMu'
p17
(dp18
g5
F0.00969211396935532
sg6
g7
sg8
F635.0
sg9
F0.937007874015748
sg10
F595.0
sg11
F0.011179643526122995
ssS'RTErrStat'
p19
F0.012241965211950083
sS'RTErrSyst'
p20
F0.06524625772198084
ss.