(dp0
S'Full2012'
p1
(dp2
S'MuMu'
p3
(dp4
S'UncertaintyUp'
p5
F0.00042199669339315626
sS'cut'
p6
S'weight*(ht > 200 && !(nJets >= 2 && met > 100) && abs(eta1) < 1.4 && abs(eta2) < 1.4 && ( chargeProduct < 0 && pt1 > 20 && pt2 > 20 && abs(eta1)<2.4  && abs(eta2) < 2.4 && ((abs(eta1) < 1.4 || abs(eta1) > 1.6) && (abs(eta2) < 1.4 || abs(eta2) > 1.6)) && p4.M() > 20 && deltaR > 0.3) && runNr < 99999999)'
p7
sS'Denominator'
p8
F3287.863525390625
sS'Efficiency'
p9
F0.985942470566579
sS'Nominator'
p10
F3241.644287109375
sS'UncertaintyDown'
p11
F0.00042199669339315626
ssS'RT'
p12
F1.0173487327753694
sS'MuMuNoTrack'
p13
(dp14
g5
F0.0007241188008084709
sg6
g7
sg8
F3287.863525390625
sg9
F0.956721604795216
sg10
F3145.570068359375
sg11
F0.0007241188008084709
ssS'EE'
p15
(dp16
g5
F0.000606573473210914
sg6
g7
sg8
F2994.60302734375
sg9
F0.9726876002678647
sg10
F2912.813232421875
sg11
F0.000606573473210914
ssS'EMu'
p17
(dp18
g5
F0.00047983676733776015
sg6
g7
sg8
F6523.0771484375
sg9
F0.9625928438262533
sg10
F6279.0673828125
sg11
F0.00047983676733776015
ssS'RTErrStat'
p19
F0.000630004788434971
sS'RTErrSyst'
p20
F0.06369620677679978
ss.