(dp0
S'Full2012'
p1
(dp2
S'MuMu'
p3
(dp4
S'UncertaintyUp'
p5
F0.007555934502642803
sS'cut'
p6
S'weight*(ht > 200 && !(nJets >= 2 && met > 100) &&  1.6 <= TMath::Max(abs(eta1),abs(eta2)) && ( chargeProduct < 0 && pt1 > 20 && pt2 > 20 && abs(eta1)<2.4  && abs(eta2) < 2.4 && ((abs(eta1) < 1.4 || abs(eta1) > 1.6) && (abs(eta2) < 1.4 || abs(eta2) > 1.6)) && p4.M() > 20 && deltaR > 0.3 && !(runNr == 195649 && lumiSec == 49 && eventNr == 75858433) && !(runNr == 195749 && lumiSec == 108 && eventNr == 216906941)) && runNr < 99999999)'
p7
sS'Denominator'
p8
F566.0
sS'Efficiency'
p9
F0.9664310954063604
sS'Nominator'
p10
F547.0
sS'UncertaintyDown'
p11
F0.009394653696033872
ssS'RT'
p12
F1.0840548995880581
sS'MuMuNoTrack'
p13
(dp14
g5
F0.013369997712122661
sg6
g7
sg8
F566.0
sg9
F0.8886925795053003
sg10
F503.0
sg11
F0.014833739815088953
ssS'EE'
p15
(dp16
g5
F0.005124693650629508
sg6
g7
sg8
F980.0
sg9
F0.9734693877551021
sg10
F954.0
sg11
F0.006186502988953069
ssS'EMu'
p17
(dp18
g5
F0.029128854262465143
sg6
g7
sg8
F114.0
sg9
F0.8947368421052632
sg10
F102.0
sg11
F0.03706436267640911
ssS'RTErrStat'
p19
F0.04185403678987271
sS'RTErrSyst'
p20
F0.06734334805272199
ss.