(dp0
S'Full2012'
p1
(dp2
S'MuMu'
p3
(dp4
S'UncertaintyUp'
p5
F0.00042785833655489824
sS'cut'
p6
S'weight*(ht > 200 && !(nJets >= 2 && met > 100) && ( chargeProduct < 0 && pt1 > 20 && pt2 > 20 && abs(eta1)<2.4  && abs(eta2) < 2.4 && ((abs(eta1) < 1.4 || abs(eta1) > 1.6) && (abs(eta2) < 1.4 || abs(eta2) > 1.6)) && p4.M() > 20 && deltaR > 0.3 && !(runNr == 195649 && lumiSec == 49 && eventNr == 75858433) && !(runNr == 195749 && lumiSec == 108 && eventNr == 216906941)) && runNr < 99999999)'
p7
sS'Denominator'
p8
F4548.79296875
sS'Efficiency'
p9
F0.9803155412965836
sS'Nominator'
p10
F4459.25244140625
sS'UncertaintyDown'
p11
F0.00042785833655489824
ssS'RT'
p12
F1.0175212739328103
sS'MuMuNoTrack'
p13
(dp14
g5
F0.0006704015577035927
sg6
g7
sg8
F4548.79296875
sg9
F0.9494801806110996
sg10
F4318.98876953125
sg11
F0.0006704015577035927
ssS'EE'
p15
(dp16
g5
F0.000534297123980565
sg6
g7
sg8
F4033.331298828125
sg9
F0.9725761136525625
sg10
F3922.7216796875
sg11
F0.000534297123980565
ssS'EMu'
p17
(dp18
g5
F0.00043174159151060376
sg6
g7
sg8
F8924.3125
sg9
F0.9596243189251273
sg10
F8563.9873046875
sg11
F0.00043174159151060376
ssS'RTErrStat'
p19
F0.0005755623897400052
sS'RTErrSyst'
p20
F0.06395222995142263
ss.