(dp0
S'Full2012'
p1
(dp2
S'MuMu'
p3
(dp4
S'UncertaintyUp'
p5
F0.0004219967260964408
sS'cut'
p6
S'weight*(ht > 200 && !(nJets >= 2 && met > 100) && abs(eta1) < 1.4 && abs(eta2) < 1.4 && ( chargeProduct < 0 && pt1 > 20 && pt2 > 20 && abs(eta1)<2.4  && abs(eta2) < 2.4 && ((abs(eta1) < 1.4 || abs(eta1) > 1.6) && (abs(eta2) < 1.4 || abs(eta2) > 1.6)) && p4.M() > 20 && deltaR > 0.3 && !(runNr == 195649 && lumiSec == 49 && eventNr == 75858433) && !(runNr == 195749 && lumiSec == 108 && eventNr == 216906941)) && runNr < 99999999)'
p7
sS'Denominator'
p8
F3344.91357421875
sS'Efficiency'
p9
F0.9859425378113895
sS'Nominator'
p10
F3297.892578125
sS'UncertaintyDown'
p11
F0.0004219967260964408
ssS'RT'
p12
F1.0173487065326805
sS'MuMuNoTrack'
p13
(dp14
g5
F0.0007241188560243028
sg6
g7
sg8
F3344.91357421875
sg9
F0.9567216898675592
sg10
F3200.1513671875
sg11
F0.0007241188560243028
ssS'EE'
p15
(dp16
g5
F0.0006065734341264006
sg6
g7
sg8
F3046.56494140625
sg9
F0.9726875250926977
sg10
F2963.355712890625
sg11
F0.0006065734341264006
ssS'EMu'
p17
(dp18
g5
F0.0004798367342434551
sg6
g7
sg8
F6636.2646484375
sg9
F0.9625928642851519
sg10
F6388.02099609375
sg11
F0.0004798367342434551
ssS'RTErrStat'
p19
F0.0006300047507141417
sS'RTErrSyst'
p20
F0.06369620607031141
ss.