(dp0
S'Full2012'
p1
(dp2
S'MuMu'
p3
(dp4
S'UncertaintyUp'
p5
F0.004651918571949243
sS'cut'
p6
S'weight*(ht > 200 && !(nJets >= 2 && met > 100) && abs(eta1) < 1.4 && abs(eta2) < 1.4 && ( chargeProduct < 0 && pt1 > 20 && pt2 > 20 && abs(eta1)<2.4  && abs(eta2) < 2.4 && ((abs(eta1) < 1.4 || abs(eta1) > 1.6) && (abs(eta2) < 1.4 || abs(eta2) > 1.6)) && p4.M() > 20 && deltaR > 0.3 && !(runNr == 195649 && lumiSec == 49 && eventNr == 75858433) && !(runNr == 195749 && lumiSec == 108 && eventNr == 216906941)) && runNr < 99999999)'
p7
sS'Denominator'
p8
F1420.0
sS'Efficiency'
p9
F0.9683098591549296
sS'Nominator'
p10
F1375.0
sS'UncertaintyDown'
p11
F0.005361262874285733
ssS'RT'
p12
F1.025735292925399
sS'MuMuNoTrack'
p13
(dp14
g5
F0.00831634934436265
sg6
g7
sg8
F1420.0
sg9
F0.8915492957746479
sg10
F1266.0
sg11
F0.008891134859384198
ssS'EE'
p15
(dp16
g5
F0.0026741203437362637
sg6
g7
sg8
F3692.0
sg9
F0.9729144095341279
sg10
F3592.0
sg11
F0.0029432690092437985
ssS'EMu'
p17
(dp18
g5
F0.009913734654567019
sg6
g7
sg8
F521.0
sg9
F0.946257197696737
sg10
F493.0
sg11
F0.011791211351810715
ssS'RTErrStat'
p19
F0.012876744864696397
sS'RTErrSyst'
p20
F0.0648109511751689
ss.