(dp0
S'EarlyData2015'
p1
(dp2
S'MuMu'
p3
(dp4
S'UncertaintyUp'
p5
F0.0017260343931237987
sS'cut'
p6
S'weight*(ht > 400 && !(nJets >= 2 && met > 100) && ( chargeProduct < 0 && ((pt1 > 25 && pt2 > 20) || (pt1 > 20 && pt2 > 25))  && abs(eta1)<2.4  && abs(eta2) < 2.4 && ((abs(eta1) < 1.4 || abs(eta1) > 1.6) && (abs(eta2) < 1.4 || abs(eta2) > 1.6)) && deltaR > 0.3 && p4.M() > 20) && runNr < 99999999)'
p7
sS'Denominator'
p8
F6351.5634765625
sS'Efficiency'
p9
F0.9474446575269592
sS'Nominator'
p10
F6017.7548828125
sS'UncertaintyDown'
p11
F0.0017260343931237987
ssS'RT'
p12
F1.0219776511447074
sS'MuMuNoTrack'
p13
(dp14
g5
F0.0021803253627256103
sg6
g7
sg8
F6351.5634765625
sg9
F0.9127849918842263
sg10
F5797.61181640625
sg11
F0.0021803253627256103
ssS'EE'
p15
(dp16
g5
F0.002183837475960293
sg6
g7
sg8
F5457.5439453125
sg9
F0.9180904621523568
sg10
F5010.51904296875
sg11
F0.002183837475960293
ssS'EMu'
p17
(dp18
g5
F0.0019252051027853767
sg6
g7
sg8
F3878.203369140625
sg9
F0.9125953777752149
sg10
F3539.23046875
sg11
F0.0019252051027853767
ssS'RTErrStat'
p19
F0.00264426229119666
sS'RTErrSyst'
p20
F0.06809446948331592
ss.