(dp0
S'25ns'
p1
(dp2
S'MuMu'
p3
(dp4
S'UncertaintyUp'
p5
F0.001651107913047345
sS'cut'
p6
S'genWeight*weight*(ht > 200 && !(nJets >= 2 && met > 100) && ( chargeProduct < 0 && pt1 > 20 && pt2 > 20  && abs(eta1)<2.4  && abs(eta2) < 2.4 && ((abs(eta1) < 1.4 || abs(eta1) > 1.6) && (abs(eta2) < 1.4 || abs(eta2) > 1.6)) && deltaR > 0.3 && p4.M() > 20) && ( (runNr > 254230 && runNr < 254833) || runNr > 254852 || runNr ==1) )'
p7
sS'Denominator'
p8
F81.42770385742188
sS'Efficiency'
p9
F0.9403974105612611
sS'Nominator'
p10
F76.57440185546875
sS'UncertaintyDown'
p11
F0.001651107913047345
ssS'RT'
p12
F1.0126394305208835
sS'MuMuNoTrack'
p13
(dp14
g5
F0.002088151776721392
sg6
g7
sg8
F81.42770385742188
sg9
F0.900437482174466
sg10
F73.320556640625
sg11
F0.002088151776721392
ssS'EE'
p15
(dp16
g5
F0.001622753536884347
sg6
g7
sg8
F124.44971466064453
sg9
F0.9089657576416884
sg10
F113.12052917480469
sg11
F0.001622753536884347
ssS'EMu'
p17
(dp18
g5
F0.0011630031709823907
sg6
g7
sg8
F232.56161499023438
sg9
F0.9130081191993417
sg10
F212.3306427001953
sg11
F0.0011630031709823907
ssS'RTErrStat'
p19
F0.0018086530163634478
sS'RTErrSyst'
p20
F0.06764471330783052
ss.