(dp0
S'25ns'
p1
(dp2
S'MuMu'
p3
(dp4
S'UncertaintyUp'
p5
F0.003165756895141647
sS'cut'
p6
S'genWeight*weight*(ht > 200 && !(nJets >= 2 && met > 100) &&  1.6 <= TMath::Max(abs(eta1),abs(eta2)) && ( chargeProduct < 0 && pt1 > 20 && pt2 > 20  && abs(eta1)<2.4  && abs(eta2) < 2.4 && ((abs(eta1) < 1.4 || abs(eta1) > 1.6) && (abs(eta2) < 1.4 || abs(eta2) > 1.6)) && deltaR > 0.3 && p4.M() > 20) && ( (runNr > 254230 && runNr < 254833) || runNr > 254852 || runNr ==1) )'
p7
sS'Denominator'
p8
F25.84503746032715
sS'Efficiency'
p9
F0.9296496011178544
sS'Nominator'
p10
F24.02682876586914
sS'UncertaintyDown'
p11
F0.003165756895141647
ssS'RT'
p12
F1.0151979322087497
sS'MuMuNoTrack'
p13
(dp14
g5
F0.003984622612869804
sg6
g7
sg8
F25.84503746032715
sg9
F0.882608452114106
sg10
F22.81104850769043
sg11
F0.003984622612869804
ssS'EE'
p15
(dp16
g5
F0.0031962457887502183
sg6
g7
sg8
F33.16004180908203
sg9
F0.9055416690728986
sg10
F30.027799606323242
sg11
F0.0031962457887502183
ssS'EMu'
p17
(dp18
g5
F0.002251390425843436
sg6
g7
sg8
F67.94693756103516
sg9
F0.9037808581934239
sg10
F61.409141540527344
sg11
F0.002251390425843436
ssS'RTErrStat'
p19
F0.0035487149198514274
sS'RTErrSyst'
p20
F0.06844882738910144
ss.