(dp0
S'25ns'
p1
(dp2
S'MuMu'
p3
(dp4
S'UncertaintyUp'
p5
F0.05857157606465124
sS'cut'
p6
S'genWeight*weight*(ht > 200 && !(nJets >= 2 && met > 100) && abs(eta1) < 1.4 && abs(eta2) < 1.4 && ( chargeProduct < 0 && pt1 > 20 && pt2 > 20  && abs(eta1)<2.4  && abs(eta2) < 2.4 && ((abs(eta1) < 1.4 || abs(eta1) > 1.6) && (abs(eta2) < 1.4 || abs(eta2) > 1.6)) && deltaR > 0.3 && p4.M() > 20) && ( (runNr > 254230 && runNr < 254833) || runNr > 254852 || runNr ==1) )'
p7
sS'Denominator'
p8
F48.0
sS'Efficiency'
p9
F0.8125
sS'Nominator'
p10
F39.0
sS'UncertaintyDown'
p11
F0.07377968352106745
ssS'RT'
p12
F1.0443552872953221
sS'MuMuNoTrack'
p13
(dp14
g5
F0.0661872220135008
sg6
g7
sg8
F48.0
sg9
F0.75
sg10
F36.0
sg11
F0.07816908548900292
ssS'EE'
p15
(dp16
g5
F0.02311994391525518
sg6
g7
sg8
F118.0
sg9
F0.9322033898305084
sg10
F110.0
sg11
F0.03173568454042175
ssS'EMu'
p17
(dp18
g5
F0.08927179079808079
sg6
g7
sg8
F18.0
sg9
F0.8333333333333334
sg10
F15.0
sg11
F0.135998901491296
ssS'RTErrStat'
p19
F0.17780122054182412
sS'RTErrSyst'
p20
F0.07578566500511734
ss.