(dp0
S'Full2012'
p1
(dp2
S'MuMu'
p3
(dp4
S'UncertaintyUp'
p5
F0.0011077694419618922
sS'cut'
p6
S'weight*(ht > 200 && !(nJets >= 2 && met > 100) &&  1.6 <= TMath::Max(abs(eta1),abs(eta2)) && ( chargeProduct < 0 && pt1 > 20 && pt2 > 20 && abs(eta1)<2.4  && abs(eta2) < 2.4 && ((abs(eta1) < 1.4 || abs(eta1) > 1.6) && (abs(eta2) < 1.4 || abs(eta2) > 1.6)) && p4.M() > 20 && deltaR > 0.3 && !(runNr == 195649 && lumiSec == 49 && eventNr == 75858433) && !(runNr == 195749 && lumiSec == 108 && eventNr == 216906941)) && runNr < 99999999)'
p7
sS'Denominator'
p8
F1203.8868408203125
sS'Efficiency'
p9
F0.9646889586251238
sS'Nominator'
p10
F1161.3763427734375
sS'UncertaintyDown'
p11
F0.0011077694419618922
ssS'RT'
p12
F1.0183398540605801
sS'MuMuNoTrack'
p13
(dp14
g5
F0.001532851566262039
sg6
g7
sg8
F1203.8868408203125
sg9
F0.9293656482334999
sg10
F1118.85107421875
sg11
F0.001532851566262039
ssS'EE'
p15
(dp16
g5
F0.0011234563742251735
sg6
g7
sg8
F986.771240234375
sg9
F0.9722433485946289
sg10
F959.3817749023438
sg11
F0.0011234563742251735
ssS'EMu'
p17
(dp18
g5
F0.0009470129782535031
sg6
g7
sg8
F2288.025390625
sg9
F0.951017269769836
sg10
F2175.95166015625
sg11
F0.0009470129782535031
ssS'RTErrStat'
p19
F0.001303473717861686
sS'RTErrSyst'
p20
F0.06469259520865585
ss.