(dp0
S'25ns'
p1
(dp2
S'MuMu'
p3
(dp4
S'UncertaintyUp'
p5
F0.02854343966272954
sS'cut'
p6
S'genWeight*weight*(ht > 200 && !(nJets >= 2 && met > 100) &&  1.6 <= TMath::Max(abs(eta1),abs(eta2)) && ( chargeProduct < 0 && pt1 > 20 && pt2 > 20  && abs(eta1)<2.4  && abs(eta2) < 2.4 && ((abs(eta1) < 1.4 || abs(eta1) > 1.6) && (abs(eta2) < 1.4 || abs(eta2) > 1.6)) && deltaR > 0.3 && p4.M() > 20) && ( (runNr > 254230 && runNr < 254833) || runNr > 254852 || runNr ==1) )'
p7
sS'Denominator'
p8
F29.0
sS'Efficiency'
p9
F0.9655172413793104
sS'Nominator'
p10
F28.0
sS'UncertaintyDown'
p11
F0.07487306710557251
ssS'RT'
p12
F0.9308543559585857
sS'MuMuNoTrack'
p13
(dp14
g5
F0.06481098194228685
sg6
g7
sg8
F29.0
sg9
F0.8620689655172413
sg10
F25.0
sg11
F0.09569835266308147
ssS'EE'
p15
(dp16
g5
F0.04843168848164103
sg6
g7
sg8
F39.0
sg9
F0.8974358974358975
sg10
F35.0
sg11
F0.07369475907808132
ssS'EMu'
p17
(dp18
g5
F0.0
sg6
g7
sg8
F8.0
sg9
F1.0
sg10
F8.0
sg11
F0.20556785742921024
ssS'RTErrStat'
p19
F0.19844307089835383
sS'RTErrSyst'
p20
F0.05847707123566142
ss.