(dp0
S'25ns'
p1
(dp2
S'MuMu'
p3
(dp4
S'UncertaintyUp'
p5
F0.0019178519743193734
sS'cut'
p6
S'genWeight*weight*(ht > 200 && !(nJets >= 2 && met > 100) && abs(eta1) < 1.4 && abs(eta2) < 1.4 && ( chargeProduct < 0 && pt1 > 20 && pt2 > 20  && abs(eta1)<2.4  && abs(eta2) < 2.4 && ((abs(eta1) < 1.4 || abs(eta1) > 1.6) && (abs(eta2) < 1.4 || abs(eta2) > 1.6)) && deltaR > 0.3 && p4.M() > 20) && ( (runNr > 254230 && runNr < 254833) || runNr > 254852 || runNr ==1) )'
p7
sS'Denominator'
p8
F55.58246612548828
sS'Efficiency'
p9
F0.9453982365872122
sS'Nominator'
p10
F52.54756546020508
sS'UncertaintyDown'
p11
F0.0019178519743193734
ssS'RT'
p12
F1.011799072877746
sS'MuMuNoTrack'
p13
(dp14
g5
F0.0024310215049175854
sg6
g7
sg8
F55.58246612548828
sg9
F0.9087285981849764
sg10
F50.509376525878906
sg11
F0.0024310215049175854
ssS'EE'
p15
(dp16
g5
F0.0018829929712842475
sg6
g7
sg8
F91.2899169921875
sg9
F0.9102090735137
sg10
F83.09291076660156
sg11
F0.0018829929712842475
ssS'EMu'
p17
(dp18
g5
F0.0013545414881931395
sg6
g7
sg8
F164.61483764648438
sg9
F0.9168191944567573
sg10
F150.9220428466797
sg11
F0.0013545414881931395
ssS'RTErrStat'
p19
F0.0020936097579645476
sS'RTErrSyst'
p20
F0.06732752157329278
ss.