(dp0
S'Full2012'
p1
(dp2
S'MuMu'
p3
(dp4
S'UncertaintyUp'
p5
F0.00042785833871727963
sS'cut'
p6
S'weight*(ht > 200 && !(nJets >= 2 && met > 100) && ( chargeProduct < 0 && pt1 > 20 && pt2 > 20 && abs(eta1)<2.4  && abs(eta2) < 2.4 && ((abs(eta1) < 1.4 || abs(eta1) > 1.6) && (abs(eta2) < 1.4 || abs(eta2) > 1.6)) && p4.M() > 20 && deltaR > 0.3) && runNr < 99999999)'
p7
sS'Denominator'
p8
F4471.20947265625
sS'Efficiency'
p9
F0.9803155758789661
sS'Nominator'
p10
F4383.1962890625
sS'UncertaintyDown'
p11
F0.00042785833871727963
ssS'RT'
p12
F1.0175214200393223
sS'MuMuNoTrack'
p13
(dp14
g5
F0.0006704015611295189
sg6
g7
sg8
F4471.20947265625
sg9
F0.949480164817506
sg10
F4245.32470703125
sg11
F0.0006704015611295189
ssS'EE'
p15
(dp16
g5
F0.0005342971111450545
sg6
g7
sg8
F3964.53955078125
sg9
F0.9725760978951956
sg10
F3855.81640625
sg11
F0.0005342971111450545
ssS'EMu'
p17
(dp18
g5
F0.00043174160620862434
sg6
g7
sg8
F8772.1005859375
sg9
F0.9596241902845614
sg10
F8417.919921875
sg11
F0.00043174160620862434
ssS'RTErrStat'
p19
F0.0005755624417516096
sS'RTErrSyst'
p20
F0.06395223523188001
ss.