(dp0
S'Full2012'
p1
(dp2
S'MuMu'
p3
(dp4
S'UncertaintyUp'
p5
F0.0011077694667123161
sS'cut'
p6
S'weight*(ht > 200 && !(nJets >= 2 && met > 100) &&  1.6 <= TMath::Max(abs(eta1),abs(eta2)) && ( chargeProduct < 0 && pt1 > 20 && pt2 > 20 && abs(eta1)<2.4  && abs(eta2) < 2.4 && ((abs(eta1) < 1.4 || abs(eta1) > 1.6) && (abs(eta2) < 1.4 || abs(eta2) > 1.6)) && p4.M() > 20 && deltaR > 0.3) && runNr < 99999999)'
p7
sS'Denominator'
p8
F1183.353515625
sS'Efficiency'
p9
F0.9646889962814235
sS'Nominator'
p10
F1141.568115234375
sS'UncertaintyDown'
p11
F0.0011077694667123161
ssS'RT'
p12
F1.0183398660264487
sS'MuMuNoTrack'
p13
(dp14
g5
F0.001532851599261753
sg6
g7
sg8
F1183.353515625
sg9
F0.9293657169689558
sg10
F1099.7681884765625
sg11
F0.001532851599261753
ssS'EE'
p15
(dp16
g5
F0.0011234564371385147
sg6
g7
sg8
F969.9409790039062
sg9
F0.9722434232662428
sg10
F943.0187377929688
sg11
F0.0011234564371385147
ssS'EMu'
p17
(dp18
g5
F0.0009470130728054249
sg6
g7
sg8
F2249.0009765625
sg9
F0.9510173136770362
sg10
F2138.8388671875
sg11
F0.0009470130728054249
ssS'RTErrStat'
p19
F0.0013034737172112714
sS'RTErrSyst'
p20
F0.064692590691598
ss.