(dp0
S'25ns'
p1
(dp2
S'MuMu'
p3
(dp4
S'UncertaintyUp'
p5
F0.03908474863939282
sS'cut'
p6
S'genWeight*weight*(ht > 200 && !(nJets >= 2 && met > 100) && ( chargeProduct < 0 && pt1 > 20 && pt2 > 20  && abs(eta1)<2.4  && abs(eta2) < 2.4 && ((abs(eta1) < 1.4 || abs(eta1) > 1.6) && (abs(eta2) < 1.4 || abs(eta2) > 1.6)) && deltaR > 0.3 && p4.M() > 20) && ( (runNr > 254230 && runNr < 254833) || runNr > 254852 || runNr ==1) )'
p7
sS'Denominator'
p8
F77.0
sS'Efficiency'
p9
F0.8701298701298701
sS'Nominator'
p10
F67.0
sS'UncertaintyDown'
p11
F0.05022908670566406
ssS'RT'
p12
F1.0133785924930698
sS'MuMuNoTrack'
p13
(dp14
g5
F0.04815234001579116
sg6
g7
sg8
F77.0
sg9
F0.7922077922077922
sg10
F61.0
sg11
F0.056733672697702575
ssS'EE'
p15
(dp16
g5
F0.021320669789460567
sg6
g7
sg8
F157.0
sg9
F0.9235668789808917
sg10
F145.0
sg11
F0.027500920005466778
ssS'EMu'
p17
(dp18
g5
F0.06212440057283175
sg6
g7
sg8
F26.0
sg9
F0.8846153846153846
sg10
F23.0
sg11
F0.09964539383077797
ssS'RTErrStat'
p19
F0.11879933982736209
sS'RTErrSyst'
p20
F0.0698638075518524
ss.