(dp0
S'EarlyData2015'
p1
(dp2
S'MuMu'
p3
(dp4
S'UncertaintyUp'
p5
F0.0035192769432409454
sS'cut'
p6
S'weight*(ht > 400 && !(nJets >= 2 && met > 100) &&  1.6 <= TMath::Max(abs(eta1),abs(eta2)) && ( chargeProduct < 0 && ((pt1 > 25 && pt2 > 20) || (pt1 > 20 && pt2 > 25))  && abs(eta1)<2.4  && abs(eta2) < 2.4 && ((abs(eta1) < 1.4 || abs(eta1) > 1.6) && (abs(eta2) < 1.4 || abs(eta2) > 1.6)) && deltaR > 0.3 && p4.M() > 20) && runNr < 99999999)'
p7
sS'Denominator'
p8
F2191.62060546875
sS'Efficiency'
p9
F0.926671165632417
sS'Nominator'
p10
F2030.91162109375
sS'UncertaintyDown'
p11
F0.0035192769432409454
ssS'RT'
p12
F1.0242186358677536
sS'MuMuNoTrack'
p13
(dp14
g5
F0.0043492761453710616
sg6
g7
sg8
F2191.62060546875
sg9
F0.881412836400361
sg10
F1931.7225341796875
sg11
F0.0043492761453710616
ssS'EE'
p15
(dp16
g5
F0.0042323307562578405
sg6
g7
sg8
F1676.8177490234375
sg9
F0.9077722250900904
sg10
F1522.1685791015625
sg11
F0.0042323307562578405
ssS'EMu'
p17
(dp18
g5
F0.003922159507349976
sg6
g7
sg8
F1118.994384765625
sg9
F0.8954855793765372
sg10
F1002.0433349609375
sg11
F0.003922159507349976
ssS'RTErrStat'
p19
F0.005441273104319721
sS'RTErrSyst'
p20
F0.06949528411328305
ss.